******************************************************************************
             TMS320C2000 Linker PC v6.1.0                      
******************************************************************************
>> Linked Mon Apr 27 08:51:03 2015

OUTPUT FILE NAME:   <HIMAP4UP_v11_modify.out>
ENTRY POINT SYMBOL: "_c_int00"  address: 0031adba


MEMORY CONFIGURATION

         name            origin    length      used     unused   attr    fill
----------------------  --------  ---------  --------  --------  ----  --------
PAGE 0:
  RAML_CODE             00008000   00004000  00002209  00001df7  RWIX
  FLASH_CODE            00308000   00037f80  0001a6a7  0001d8d9  RWIX
  CSM_RSVD              0033ff80   00000076  00000000  00000076  RWIX
  BEGIN                 0033fff6   00000002  00000002  00000000  RWIX
  CSM_PWL               0033fff8   00000008  00000000  00000008  RWIX
  ADC_CAL               00380080   00000009  00000000  00000009  RWIX
  OTP                   00380400   00000400  00000000  00000400  RWIX
  IQTABLES              003fe000   00000b50  00000000  00000b50  RWIX
  IQTABLES2             003feb50   0000008c  00000000  0000008c  RWIX
  FPUTABLES             003febdc   000006a0  00000000  000006a0  RWIX
  ROM                   003ff27c   00000d44  00000000  00000d44  RWIX
  RESET                 003fffc0   00000002  00000000  00000002  RWIX
  VECTORS               003fffc2   0000003e  00000000  0000003e  RWIX

PAGE 1:
  BOOT_RSVD             00000000   00000050  00000000  00000050  RWIX
  RAMM0                 00000050   000003b0  00000000  000003b0  RWIX
  RAMM1                 00000400   00000400  00000000  00000400  RWIX
  DEV_EMU               00000880   00000180  00000000  00000180  RWIX
  FLASH_REGS            00000a80   00000060  00000000  00000060  RWIX
  CSM                   00000ae0   00000010  00000000  00000010  RWIX
  ADC_MIRROR            00000b00   00000010  00000000  00000010  RWIX
  XINTF                 00000b20   00000020  00000000  00000020  RWIX
  CPU_TIMER0            00000c00   00000008  00000000  00000008  RWIX
  CPU_TIMER1            00000c08   00000008  00000000  00000008  RWIX
  CPU_TIMER2            00000c10   00000008  00000000  00000008  RWIX
  PIE_CTRL              00000ce0   00000020  00000000  00000020  RWIX
  PIE_VECT              00000d00   00000100  00000100  00000000  RWIX
  DMA                   00001000   00000200  00000000  00000200  RWIX
  MCBSPA                00005000   00000040  00000000  00000040  RWIX
  MCBSPB                00005040   00000040  00000000  00000040  RWIX
  ECANA                 00006000   00000040  00000000  00000040  RWIX
  ECANA_LAM             00006040   00000040  00000000  00000040  RWIX
  ECANA_MOTS            00006080   00000040  00000000  00000040  RWIX
  ECANA_MOTO            000060c0   00000040  00000000  00000040  RWIX
  ECANA_MBOX            00006100   00000100  00000000  00000100  RWIX
  ECANB                 00006200   00000040  00000000  00000040  RWIX
  ECANB_LAM             00006240   00000040  00000000  00000040  RWIX
  ECANB_MOTS            00006280   00000040  00000000  00000040  RWIX
  ECANB_MOTO            000062c0   00000040  00000000  00000040  RWIX
  ECANB_MBOX            00006300   00000100  00000000  00000100  RWIX
  EPWM1                 00006800   00000022  00000000  00000022  RWIX
  EPWM2                 00006840   00000022  00000000  00000022  RWIX
  EPWM3                 00006880   00000022  00000000  00000022  RWIX
  EPWM4                 000068c0   00000022  00000000  00000022  RWIX
  EPWM5                 00006900   00000022  00000000  00000022  RWIX
  EPWM6                 00006940   00000022  00000000  00000022  RWIX
  ECAP1                 00006a00   00000020  00000000  00000020  RWIX
  ECAP2                 00006a20   00000020  00000000  00000020  RWIX
  ECAP3                 00006a40   00000020  00000000  00000020  RWIX
  ECAP4                 00006a60   00000020  00000000  00000020  RWIX
  ECAP5                 00006a80   00000020  00000000  00000020  RWIX
  ECAP6                 00006aa0   00000020  00000000  00000020  RWIX
  EQEP1                 00006b00   00000040  00000000  00000040  RWIX
  EQEP2                 00006b40   00000040  00000000  00000040  RWIX
  GPIOCTRL              00006f80   00000040  00000000  00000040  RWIX
  GPIODAT               00006fc0   00000020  00000000  00000020  RWIX
  GPIOINT               00006fe0   00000020  00000000  00000020  RWIX
  SYSTEM                00007010   00000020  00000000  00000020  RWIX
  SPIA                  00007040   00000010  00000000  00000010  RWIX
  SCIA                  00007050   00000010  00000000  00000010  RWIX
  XINTRUPT              00007070   00000010  00000000  00000010  RWIX
  ADC                   00007100   00000020  00000000  00000020  RWIX
  SCIB                  00007750   00000010  00000000  00000010  RWIX
  SCIC                  00007770   00000010  00000000  00000010  RWIX
  I2CA                  00007900   00000040  00000000  00000040  RWIX
  RAML_DATA             0000c000   00004000  000019bc  00002644  RWIX
  FLASHB                00330000   00008000  00000000  00008000  RWIX
  CSM_PWL               0033fff8   00000008  00000000  00000008  RWIX
  PARTID                00380090   00000001  00000000  00000001  RWIX


SECTION ALLOCATION MAP

 output                                  attributes/
section   page    origin      length       input sections
--------  ----  ----------  ----------   ----------------
.pinit     0    00308000    00000000     UNINITIALIZED

ramfuncs   0    00308000    00002209     RUN ADDR = 00008000
                  00308000    00000dcd     system_isr.obj (ramfuncs:retain)
                  00308dcd    00000b81     relaying.obj (ramfuncs)
                  0030994e    00000444     main.obj (ramfuncs)
                  00309d92    00000182     setting.obj (ramfuncs)
                  00309f14    00000161     peripheral.obj (ramfuncs)
                  0030a075    000000f3     comms.obj (ramfuncs)
                  0030a168    00000087     menu.obj (ramfuncs)
                  0030a1ef    00000016     system_setup.obj (ramfuncs)
                  0030a205    00000004     DSP2833x_usDelay.obj (ramfuncs)

.text      0    0030a20a    00010f09     
                  0030a20a    0000a690     menu.obj (.text)
                  0031489a    0000136e     main.obj (.text)
                  00315c08    0000105c     comms.obj (.text)
                  00316c64    00000fc2     booting.obj (.text)
                  00317c26    00000f5e     setting.obj (.text)
                  00318b84    00000911     rts2800_fpu32.lib : _printfi.obj (.text)
                  00319495    000008b5     peripheral.obj (.text)
                  00319d4a    00000527     system_setup.obj (.text)
                  0031a271    0000050a     calibration.obj (.text)
                  0031a77b    00000107     rts2800_fpu32.lib : ll_div.obj (.text)
                  0031a882    000000c4                       : atan2.obj (.text)
                  0031a946    0000009c                       : fd_add.obj (.text)
                  0031a9e2    0000008b                       : fd_div.obj (.text)
                  0031aa6d    00000088                       : fs_div.obj (.text)
                  0031aaf5    00000083                       : fd_mpy.obj (.text)
                  0031ab78    00000072                       : atan.obj (.text)
                  0031abea    0000006a                       : exp.obj (.text)
                  0031ac54    00000061                       : cos.obj (.text)
                  0031acb5    0000005a                       : pow.obj (.text)
                  0031ad0f    00000057                       : sin.obj (.text)
                  0031ad66    00000054                       : _log.obj (.text)
                  0031adba    00000046                       : boot.obj (.text)
                  0031ae00    00000035                       : ldexp.obj (.text)
                  0031ae35    00000031                       : atoi.obj (.text)
                  0031ae66    0000002f                       : sprintf.obj (.text)
                  0031ae95    0000002c                       : ltoa.obj (.text)
                  0031aec1    0000002a                       : fd_cmp.obj (.text)
                  0031aeeb    0000002a                       : l_div.obj (.text)
                  0031af15    00000001     --HOLE-- [fill = 0]
                  0031af16    00000023                       : sqrt.obj (.text)
                  0031af39    00000022                       : i_div.obj (.text)
                  0031af5b    00000021                       : fd_toi.obj (.text)
                  0031af7c    00000021                       : memcpy_ff.obj (.text)
                  0031af9d    0000001f                       : fd_tol.obj (.text)
                  0031afbc    0000001e                       : ll_cmp.obj (.text)
                  0031afda    0000001c                       : fs_tofd.obj (.text)
                  0031aff6    0000001c                       : l_tofd.obj (.text)
                  0031b012    0000001b                       : fd_toul.obj (.text)
                  0031b02d    00000019                       : args_main.obj (.text)
                  0031b046    00000019                       : exit.obj (.text)
                  0031b05f    00000016                       : frexp.obj (.text)
                  0031b075    00000016                       : ul_tofd.obj (.text)
                  0031b08b    00000015     DSP2833x_MemCopy.obj (.text)
                  0031b0a0    00000014     rts2800_fpu32.lib : ll_mpy.obj (.text)
                  0031b0b4    00000012                       : memccpy.obj (.text)
                  0031b0c6    0000000e                       : fd_sub.obj (.text)
                  0031b0d4    0000000b                       : u_div.obj (.text)
                  0031b0df    0000000a                       : strlen.obj (.text)
                  0031b0e9    00000009                       : _lock.obj (.text)
                  0031b0f2    00000009                       : fd_neg.obj (.text)
                  0031b0fb    00000009                       : strcpy.obj (.text)
                  0031b104    00000008     DSP2833x_CodeStartBranch.obj (.text)
                  0031b10c    00000007     rts2800_fpu32.lib : memset.obj (.text)

.econst    0    0031b114    000069b8     
                  0031b114    0000438d     menu.obj (.econst:.string)
                  0031f4a1    00000001     --HOLE-- [fill = 0]
                  0031f4a2    00001c20     menu.obj (.econst:_menu_tables)
                  003210c2    00000101     rts2800_fpu32.lib : ctype.obj (.econst:__ctypes_)
                  003211c3    00000100     main.obj (.econst:_CRC_High)
                  003212c3    00000100     main.obj (.econst:_CRC_Low)
                  003213c3    00000001     --HOLE-- [fill = 0]
                  003213c4    0000004c     peripheral.obj (.econst)
                  00321410    00000048     main.obj (.econst:_harmonics_1st_cos)
                  00321458    00000048     main.obj (.econst:_harmonics_1st_sin)
                  003214a0    00000048     main.obj (.econst:_harmonics_3rd_cos)
                  003214e8    00000048     main.obj (.econst:_harmonics_3rd_sin)
                  00321530    00000048     main.obj (.econst:_harmonics_5th_cos)
                  00321578    00000048     main.obj (.econst:_harmonics_5th_sin)
                  003215c0    00000048     main.obj (.econst:_harmonics_7th_cos)
                  00321608    00000048     main.obj (.econst:_harmonics_7th_sin)
                  00321650    00000048     main.obj (.econst:_harmonics_9th_cos)
                  00321698    00000048     main.obj (.econst:_harmonics_9th_sin)
                  003216e0    00000038     main.obj (.econst)
                  00321718    00000028     peripheral.obj (.econst:_LCD_Position_Value)
                  00321740    00000024     rts2800_fpu32.lib : _printfi.obj (.econst:.string)
                  00321764    00000021     booting.obj (.econst:.string)
                  00321785    00000001     --HOLE-- [fill = 0]
                  00321786    00000018     main.obj (.econst:_cos_50Hz)
                  0032179e    00000018     main.obj (.econst:_cos_60Hz)
                  003217b6    00000018     main.obj (.econst:_sin_50Hz)
                  003217ce    00000018     main.obj (.econst:_sin_60Hz)
                  003217e6    00000018     rts2800_fpu32.lib : _printfi.obj (.econst)
                  003217fe    00000014     main.obj (.econst:_wave_buffer_address)
                  00321812    00000014     main.obj (.econst:_wave_buffer_post_address)
                  00321826    0000000c     menu.obj (.econst:_$P$T109$113)
                  00321832    0000000c     menu.obj (.econst:_$P$T110$114)
                  0032183e    0000000c     menu.obj (.econst:_$P$T111$115)
                  0032184a    0000000c     menu.obj (.econst:_$P$T112$116)
                  00321856    0000000c     menu.obj (.econst:_$P$T113$117)
                  00321862    0000000c     menu.obj (.econst:_$P$T114$118)
                  0032186e    0000000c     menu.obj (.econst:_$P$T115$119)
                  0032187a    0000000c     menu.obj (.econst:_$P$T116$120)
                  00321886    0000000c     menu.obj (.econst:_$P$T80$82)
                  00321892    0000000c     menu.obj (.econst:_$P$T98$102)
                  0032189e    0000000a     menu.obj (.econst:_$P$T103$107)
                  003218a8    0000000a     menu.obj (.econst:_$P$T104$108)
                  003218b2    0000000a     main.obj (.econst:_himix_number)
                  003218bc    00000009     main.obj (.econst:_DO_ON_BIT)
                  003218c5    00000009     main.obj (.econst:_OFF_BIT)
                  003218ce    00000009     main.obj (.econst:_ON_BIT)
                  003218d7    00000001     --HOLE-- [fill = 0]
                  003218d8    00000008     rts2800_fpu32.lib : atan.obj (.econst:_a$1)
                  003218e0    00000008                       : atan2.obj (.econst:_a$1)
                  003218e8    00000007     main.obj (.econst:_DO_OFF_BIT)
                  003218ef    00000001     --HOLE-- [fill = 0]
                  003218f0    00000004     menu.obj (.econst:_$P$T0$1)
                  003218f4    00000004     menu.obj (.econst:_$P$T1$2)
                  003218f8    00000004     menu.obj (.econst:_$P$T10$11)
                  003218fc    00000004     menu.obj (.econst:_$P$T100$104)
                  00321900    00000004     menu.obj (.econst:_$P$T105$109)
                  00321904    00000004     menu.obj (.econst:_$P$T106$110)
                  00321908    00000004     menu.obj (.econst:_$P$T107$111)
                  0032190c    00000004     menu.obj (.econst:_$P$T108$112)
                  00321910    00000004     menu.obj (.econst:_$P$T11$12)
                  00321914    00000004     menu.obj (.econst:_$P$T117$121)
                  00321918    00000004     menu.obj (.econst:_$P$T118$122)
                  0032191c    00000004     menu.obj (.econst:_$P$T119$123)
                  00321920    00000004     menu.obj (.econst:_$P$T12$13)
                  00321924    00000004     menu.obj (.econst:_$P$T120$124)
                  00321928    00000004     menu.obj (.econst:_$P$T121$125)
                  0032192c    00000004     menu.obj (.econst:_$P$T122$126)
                  00321930    00000004     menu.obj (.econst:_$P$T123$127)
                  00321934    00000004     menu.obj (.econst:_$P$T124$128)
                  00321938    00000004     menu.obj (.econst:_$P$T13$14)
                  0032193c    00000004     menu.obj (.econst:_$P$T14$15)
                  00321940    00000004     menu.obj (.econst:_$P$T15$16)
                  00321944    00000004     menu.obj (.econst:_$P$T16$17)
                  00321948    00000004     menu.obj (.econst:_$P$T17$18)
                  0032194c    00000004     menu.obj (.econst:_$P$T18$19)
                  00321950    00000004     menu.obj (.econst:_$P$T19$20)
                  00321954    00000004     menu.obj (.econst:_$P$T2$3)
                  00321958    00000004     menu.obj (.econst:_$P$T20$21)
                  0032195c    00000004     menu.obj (.econst:_$P$T21$22)
                  00321960    00000004     menu.obj (.econst:_$P$T22$23)
                  00321964    00000004     menu.obj (.econst:_$P$T23$24)
                  00321968    00000004     menu.obj (.econst:_$P$T24$25)
                  0032196c    00000004     menu.obj (.econst:_$P$T25$26)
                  00321970    00000004     menu.obj (.econst:_$P$T26$27)
                  00321974    00000004     menu.obj (.econst:_$P$T27$28)
                  00321978    00000004     menu.obj (.econst:_$P$T29$31)
                  0032197c    00000004     menu.obj (.econst:_$P$T3$4)
                  00321980    00000004     menu.obj (.econst:_$P$T30$32)
                  00321984    00000004     menu.obj (.econst:_$P$T33$35)
                  00321988    00000004     menu.obj (.econst:_$P$T35$37)
                  0032198c    00000004     menu.obj (.econst:_$P$T38$40)
                  00321990    00000004     menu.obj (.econst:_$P$T4$5)
                  00321994    00000004     menu.obj (.econst:_$P$T5$6)
                  00321998    00000004     menu.obj (.econst:_$P$T51$53)
                  0032199c    00000004     menu.obj (.econst:_$P$T54$56)
                  003219a0    00000004     menu.obj (.econst:_$P$T57$59)
                  003219a4    00000004     menu.obj (.econst:_$P$T6$7)
                  003219a8    00000004     menu.obj (.econst:_$P$T61$63)
                  003219ac    00000004     menu.obj (.econst:_$P$T63$65)
                  003219b0    00000004     menu.obj (.econst:_$P$T7$8)
                  003219b4    00000004     menu.obj (.econst:_$P$T76$78)
                  003219b8    00000004     menu.obj (.econst:_$P$T77$79)
                  003219bc    00000004     menu.obj (.econst:_$P$T78$80)
                  003219c0    00000004     menu.obj (.econst:_$P$T79$81)
                  003219c4    00000004     menu.obj (.econst:_$P$T8$9)
                  003219c8    00000004     menu.obj (.econst:_$P$T81$83)
                  003219cc    00000004     menu.obj (.econst:_$P$T83$85)
                  003219d0    00000004     menu.obj (.econst:_$P$T9$10)
                  003219d4    00000004     menu.obj (.econst:_$P$T90$92)
                  003219d8    00000004     menu.obj (.econst:_$P$T91$95)
                  003219dc    00000004     menu.obj (.econst:_$P$T92$96)
                  003219e0    00000004     menu.obj (.econst:_$P$T93$97)
                  003219e4    00000004     menu.obj (.econst:_$P$T94$98)
                  003219e8    00000004     menu.obj (.econst:_$P$T95$99)
                  003219ec    00000004     menu.obj (.econst:_$P$T97$101)
                  003219f0    00000004     menu.obj (.econst:_$P$T99$103)
                  003219f4    00000004     main.obj (.econst:_N47_V_MAX)
                  003219f8    00000004     main.obj (.econst:_N47_V_MIN)
                  003219fc    00000004     main.obj (.econst:_OVR_V_MAX)
                  00321a00    00000004     main.obj (.econst:_OVR_V_MIN)
                  00321a04    00000004     main.obj (.econst:_P47_V_MAX)
                  00321a08    00000004     main.obj (.econst:_P47_V_MIN)
                  00321a0c    00000004     main.obj (.econst:_UVR_1_V_MAX)
                  00321a10    00000004     main.obj (.econst:_UVR_1_V_MIN)
                  00321a14    00000004     main.obj (.econst:_UVR_2_V_MAX)
                  00321a18    00000004     main.obj (.econst:_UVR_2_V_MIN)
                  00321a1c    00000004     main.obj (.econst:_UVR_3_V_MAX)
                  00321a20    00000004     main.obj (.econst:_UVR_3_V_MIN)
                  00321a24    00000003     menu.obj (.econst:_$P$T28$29)
                  00321a27    00000003     menu.obj (.econst:_$P$T31$33)
                  00321a2a    00000003     menu.obj (.econst:_$P$T32$34)
                  00321a2d    00000003     menu.obj (.econst:_$P$T34$36)
                  00321a30    00000003     menu.obj (.econst:_$P$T36$38)
                  00321a33    00000003     menu.obj (.econst:_$P$T37$39)
                  00321a36    00000003     menu.obj (.econst:_$P$T39$41)
                  00321a39    00000003     menu.obj (.econst:_$P$T40$42)
                  00321a3c    00000003     menu.obj (.econst:_$P$T41$43)
                  00321a3f    00000003     menu.obj (.econst:_$P$T42$44)
                  00321a42    00000003     menu.obj (.econst:_$P$T43$45)
                  00321a45    00000003     menu.obj (.econst:_$P$T44$46)
                  00321a48    00000003     menu.obj (.econst:_$P$T45$47)
                  00321a4b    00000003     menu.obj (.econst:_$P$T46$48)
                  00321a4e    00000003     menu.obj (.econst:_$P$T47$49)
                  00321a51    00000003     menu.obj (.econst:_$P$T48$50)
                  00321a54    00000003     menu.obj (.econst:_$P$T50$52)
                  00321a57    00000003     menu.obj (.econst:_$P$T53$55)
                  00321a5a    00000003     menu.obj (.econst:_$P$T56$58)
                  00321a5d    00000003     menu.obj (.econst:_$P$T59$61)
                  00321a60    00000003     menu.obj (.econst:_$P$T64$66)
                  00321a63    00000003     menu.obj (.econst:_$P$T65$67)
                  00321a66    00000003     menu.obj (.econst:_$P$T66$68)
                  00321a69    00000003     menu.obj (.econst:_$P$T67$69)
                  00321a6c    00000003     menu.obj (.econst:_$P$T69$71)
                  00321a6f    00000003     menu.obj (.econst:_$P$T73$75)
                  00321a72    00000003     menu.obj (.econst:_$P$T82$84)
                  00321a75    00000003     menu.obj (.econst:_$P$T84$86)
                  00321a78    00000003     menu.obj (.econst:_$P$T85$87)
                  00321a7b    00000003     menu.obj (.econst:_$P$T86$88)
                  00321a7e    00000003     menu.obj (.econst:_$P$T87$89)
                  00321a81    00000003     menu.obj (.econst:_$P$T88$90)
                  00321a84    00000003     menu.obj (.econst:_$P$T89$91)
                  00321a87    00000003     menu.obj (.econst:_$P$T96$100)
                  00321a8a    00000003     main.obj (.econst:_DGR_V_MAX)
                  00321a8d    00000003     main.obj (.econst:_DGR_V_MIN)
                  00321a90    00000003     main.obj (.econst:_OVGR_V_MAX)
                  00321a93    00000003     main.obj (.econst:_OVGR_V_MIN)
                  00321a96    00000003     main.obj (.econst:_SGR_V_MAX)
                  00321a99    00000003     main.obj (.econst:_SGR_V_MIN)
                  00321a9c    00000002     menu.obj (.econst:_$P$T101$105)
                  00321a9e    00000002     menu.obj (.econst:_$P$T102$106)
                  00321aa0    00000002     menu.obj (.econst:_$P$T49$51)
                  00321aa2    00000002     menu.obj (.econst:_$P$T52$54)
                  00321aa4    00000002     menu.obj (.econst:_$P$T55$57)
                  00321aa6    00000002     menu.obj (.econst:_$P$T58$60)
                  00321aa8    00000002     menu.obj (.econst:_$P$T60$62)
                  00321aaa    00000002     menu.obj (.econst:_$P$T62$64)
                  00321aac    00000002     menu.obj (.econst:_$P$T68$70)
                  00321aae    00000002     menu.obj (.econst:_$P$T70$72)
                  00321ab0    00000002     menu.obj (.econst:_$P$T71$73)
                  00321ab2    00000002     menu.obj (.econst:_$P$T72$74)
                  00321ab4    00000002     menu.obj (.econst:_$P$T74$76)
                  00321ab6    00000002     menu.obj (.econst:_$P$T75$77)
                  00321ab8    00000002     main.obj (.econst:_DGR_I_MAX)
                  00321aba    00000002     main.obj (.econst:_DGR_I_MIN)
                  00321abc    00000002     main.obj (.econst:_OCGR50_I_MAX)
                  00321abe    00000002     main.obj (.econst:_OCGR50_I_MIN)
                  00321ac0    00000002     main.obj (.econst:_OCGR51_I_MAX)
                  00321ac2    00000002     main.obj (.econst:_OCGR51_I_MIN)
                  00321ac4    00000002     main.obj (.econst:_OCR50_I_MAX)
                  00321ac6    00000002     main.obj (.econst:_OCR50_I_MIN)
                  00321ac8    00000002     main.obj (.econst:_OCR51_I_MAX)
                  00321aca    00000002     main.obj (.econst:_OCR51_I_MIN)

.cinit     0    00321acc    00000bdd     
                  00321acc    00000b0b     menu.obj (.cinit)
                  003225d7    000000b4     peripheral.obj (.cinit)
                  0032268b    0000000a     rts2800_fpu32.lib : _lock.obj (.cinit)
                  00322695    0000000a                       : exit.obj (.cinit)
                  0032269f    00000004     main.obj (.cinit)
                  003226a3    00000004     rts2800_fpu32.lib : errno.obj (.cinit)
                  003226a7    00000002     --HOLE-- [fill = 0]

codestart 
*          0    0033fff6    00000002     
                  0033fff6    00000002     DSP2833x_CodeStartBranch.obj (codestart)

.reset     0    003fffc0    00000002     DSECT
                  003fffc0    00000002     rts2800_fpu32.lib : boot.obj (.reset)

vectors    0    003fffc2    00000000     DSECT

PieVectTableFile 
*          1    00000d00    00000100     UNINITIALIZED
                  00000d00    00000100     DSP2833x_GlobalVariableDefs.obj (PieVectTableFile)

.ebss      1    0000c000    000015bc     UNINITIALIZED
                  0000c000    00000dd4     main.obj (.ebss)
                  0000cdd4    00000004     rts2800_fpu32.lib : _lock.obj (.ebss)
                  0000cdd8    00000004                       : exit.obj (.ebss)
                  0000cddc    00000001                       : errno.obj (.ebss)
                  0000cddd    00000023     --HOLE--
                  0000ce00    000006b6     menu.obj (.ebss)
                  0000d4b6    0000000a     --HOLE--
                  0000d4c0    000000fc     peripheral.obj (.ebss)

.stack     1    0000d5bc    00000400     UNINITIALIZED
                  0000d5bc    00000400     --HOLE--


GLOBAL SYMBOLS: SORTED ALPHABETICALLY BY Name 

address    name
--------   ----
0030a20a   .text
0031b046   C$$EXIT
0031a946   FD$$ADD
0031aec1   FD$$CMP
0031a9e2   FD$$DIV
0031aaf5   FD$$MPY
0031b0f2   FD$$NEG
0031b0c6   FD$$SUB
0031af5b   FD$$TOI
0031af9d   FD$$TOL
0031b012   FD$$TOUL
0031aa6d   FS$$DIV
0031afda   FS$$TOFD
0031af39   I$$DIV
0031af4a   I$$MOD
0031aeeb   L$$DIV
0031aefa   L$$MOD
0031aff6   L$$TOFD
0031afbc   LL$$CMP
0031a77b   LL$$DIV
0031a7b7   LL$$MOD
0031b0a0   LL$$MPY
0031b0d4   U$$DIV
0031b0d9   U$$MOD
0031af08   UL$$DIV
0031af0f   UL$$MOD
0031b075   UL$$TOFD
0031afce   ULL$$CMP
0031a7f1   ULL$$DIV
0031a820   ULL$$MOD
0000c05e   _ACCUMULATION
0031a3c4   _ADC_High_Calibration
0031a349   _ADC_Offset_Calibration
0031a4b7   _ADC_low_Calibration
0000c00c   _ADDRESS
003186c5   _ADDRESS_Default_Settings
0000c008   _AUTO_DISPLAY
003186db   _AUTO_DISPLAY_Default_Settings
0000d4d2   _AckScr
0000ce03   _Button_Press
0000c700   _CALIBRATION
00321708   _CALIB_I_MAX
0032170e   _CALIB_I_MIN
0032170c   _CALIB_In_MAX
00321706   _CALIB_In_MIN
00321712   _CALIB_V_MAX
0032170a   _CALIB_V_MIN
00321714   _CALIB_Vo_MAX
00321716   _CALIB_Vo_MIN
0000c022   _COMM
00315c08   _COMM_CRC
0000c010   _CORE
0000c0aa   _CPT
0031866b   _CPT_Default_Settings
003211c3   _CRC_High
003212c3   _CRC_Low
00321701   _CT_1A_RATED
00321703   _CT_5A_RATED
00321700   _CT_MAX
003216fd   _CT_MIN
0000c001   _Calibration_Menu_Escape
00318b4b   _ClearFLASH
0000d030   _Cursor_Position
003216fa   _DEBOUNCE_MAX
00321702   _DEBOUNCE_MIN
0000c440   _DFT
0031a299   _DFT_Check
0000c400   _DGR
003216e0   _DGR_A_MAX
003216e1   _DGR_A_MIN
00318a84   _DGR_Default_Settings
00321ab8   _DGR_I_MAX
00321aba   _DGR_I_MIN
003216e2   _DGR_T_MAX
003216e4   _DGR_T_MIN
00321a8a   _DGR_V_MAX
00321a8d   _DGR_V_MIN
0000c052   _DIDO
0000c098   _DIGITAL_INPUT
0000c013   _DIGITAL_OUTPUT
0000c600   _DISPLAY
0000c006   _DISPLAY_3PHASE
00318739   _DISPLAY_3PHASE_Default_Settings
00318b1a   _DI_Default_Settings
00318b36   _DO_Default_Settings
003218e8   _DO_OFF_BIT
003218bc   _DO_ON_BIT
00319d15   _DO_Output
0000c01a   _DSGR_ANGLE
0000a205   _DSP28x_usDelay
0000ce01   _Data_Change
0000ce06   _Data_Change_Count
0031a300   _Degree_Check
0000c380   _EVENT
0031462f   _Event_Item_Display
003147e8   _Event_Time_Display
0000c02e   _FLASH
0000d4d6   _FauScr
00319e6e   _GPIO_setup
0000c02a   _GPT
00318653   _GPT_Default_Settings
0000c00e   _GR_ANGLE
0000c500   _HARMONICS
0000c480   _HIMIX
0000a1ef   _InitFlash
00319f1f   _InitTimer
000098d2   _Inverse_Op_Timeset
0000ce04   _KHS_Key_Press
003213c4   _KHS_LCD_Buffer
0000c580   _LCD
003194d7   _LCD_COMMAND
003194c4   _LCD_DATA
003194e8   _LCD_INIT
0000d4c2   _LCD_LIGHT
00321718   _LCD_Position_Value
0000d4c4   _LCD_RS
00319514   _LCD_light_OFF
0031950e   _LCD_light_ON
0000c000   _LOCAL_CONTROL
0000c04c   _LOCAL_CTRL
00318706   _LOCAL_CTRL_Default_Settings
0000d4c0   _Lcd_Bl_Count
0000cbc0   _MANAGER
0000c840   _MEASUREMENT
0000c004   _MIN_MAX
0000c026   _MODBUS
0031874f   _MODBUS_Default_Settings
0031b08b   _MemCopy
0000c1c0   _N47
003189bd   _N47_Default_Settings
003216f4   _N47_T_MAX
003216f5   _N47_T_MIN
003219f4   _N47_V_MAX
003219f8   _N47_V_MIN
0000d4ca   _NorScr
0000c118   _OCGR50
00318855   _OCGR50_Default_Settings
00321abc   _OCGR50_I_MAX
00321abe   _OCGR50_I_MIN
003216fb   _OCGR50_T_MAX
003216fc   _OCGR50_T_MIN
0000c280   _OCGR51
00318885   _OCGR51_Default_Settings
00321ac0   _OCGR51_I_MAX
00321ac2   _OCGR51_I_MIN
003216e5   _OCGR51_TL_MAX
003216f9   _OCGR51_TL_MIN
0000c21a   _OCR50_1
00318795   _OCR50_1_Default_Settings
00008fc5   _OCR50_1_RELAY
0000c180   _OCR50_2
003187c5   _OCR50_2_Default_Settings
00321ac4   _OCR50_I_MAX
00321ac6   _OCR50_I_MIN
003216fe   _OCR50_T_MAX
003216ea   _OCR50_T_MIN
0000c300   _OCR51_1
003187f5   _OCR51_1_Default_Settings
0000c340   _OCR51_2
00318825   _OCR51_2_Default_Settings
00321ac8   _OCR51_I_MAX
00321aca   _OCR51_I_MIN
003216f8   _OCR51_TL_MAX
003216f7   _OCR51_TL_MIN
00318766   _OCR_MODE_Default_Settings
0000c032   _OCR_MODE_SET
003218c5   _OFF_BIT
003218ce   _ON_BIT
0000c240   _OVGR
00318a49   _OVGR_Default_Settings
003216f0   _OVGR_TL_MAX
003216ef   _OVGR_TL_MIN
00321a90   _OVGR_V_MAX
00321a93   _OVGR_V_MIN
0000c2c0   _OVR
003189ff   _OVR_Default_Settings
003216ee   _OVR_TL_MAX
003216ec   _OVR_TL_MIN
003216ed   _OVR_T_MAX
003216f6   _OVR_T_MIN
003219fc   _OVR_V_MAX
00321a00   _OVR_V_MIN
0031a271   _Offset_Check
0000c19a   _P47
0031897b   _P47_Default_Settings
003216f3   _P47_T_MAX
003216f1   _P47_T_MIN
00321a04   _P47_V_MAX
00321a08   _P47_V_MIN
0000c00a   _PASSWORD
003186f0   _PASSWORD_Default_Settings
0000c016   _PROTECT
00321710   _PT_MAX
003216ff   _PT_MIN
00319d9f   _Peripheral_Clock_setup
00000d00   _PieVectTable
0000c06a   _RELAY_STATUS
0030a209   _RamfuncsLoadEnd
00308000   _RamfuncsLoadStart
00008000   _RamfuncsRunStart
0000d4ce   _ReserveP
00314893   _Restore_Screen_Info
0000c980   _SAMPLE
00008d38   _SCIRXB_ISR
00008d7b   _SCITXINTB_ISR
00008da0   _SCITXINTC_ISR
0000c3c0   _SGR
00321704   _SGR_A_MAX
003216e6   _SGR_A_MIN
00318ad5   _SGR_Default_Settings
003216e9   _SGR_I_MAX
003216eb   _SGR_I_MIN
003216e7   _SGR_T_MAX
003216e8   _SGR_T_MIN
00321a96   _SGR_V_MAX
00321a99   _SGR_V_MIN
0000c260   _SUPERVISION
0000c15a   _SYSTEM
0000c01e   _SYSTEM_ALARM
0031877e   _SYSTEM_ALARM_Default_Settings
0000c037   _SYSTEM_SET
0000d040   _Save_Current_Screen
0031488c   _Save_Screen_Info
0000d034   _Screen_Position
0000ce05   _Set_Password
00318604   _Setting_CRC
0000c100   _TIME
0000c080   _TIMER
0000c040   _TIMER0
0000c002   _TIMER1
00008bf5   _TINT1_ISR
0000c140   _UVR_1
003188b5   _UVR_1_Default_Settings
00321a0c   _UVR_1_V_MAX
00321a10   _UVR_1_V_MIN
0000c1da   _UVR_2
003188f7   _UVR_2_Default_Settings
00321a14   _UVR_2_V_MAX
00321a18   _UVR_2_V_MIN
0000c200   _UVR_3
00318939   _UVR_3_Default_Settings
00321a1c   _UVR_3_V_MAX
00321a20   _UVR_3_V_MIN
0000c046   _UVR_MODE
0031871f   _UVR_MODE_Default_Settings
003216f2   _UVR_T_MAX
003216e3   _UVR_T_MIN
0000d500   _VFDABuffer
0000d580   _VFDFBuffer
0000d540   _VFDNBuffer
00319693   _VFD_FONT
0031952e   _VFD_Init
00319604   _VFD_Single_Line_dump
0031962d   _VFD_Word_dump
0000d4c6   _VFD_cnt
00319657   _VFD_cursor
0031957f   _VFD_dump
003195c4   _VFD_dump2
00319519   _VFD_gotopo
00319566   _VFD_gotoxy
00319578   _VFD_mem_cpy_test
00319684   _VFD_printf
0000c08c   _WAVE
00008000   _XINT3_ISR
00319ec9   _Xinterface_setup
0000d9bc   __STACK_END
00000400   __STACK_SIZE
00000001   __TI_args_main
ffffffff   ___binit__
ffffffff   ___c_args__
00321acc   ___cinit__
0031b113   ___etext__
0031af7c   ___memcpy_ff
ffffffff   ___pinit__
0030a20a   ___text__
0031b02d   __args_main
0000cdd8   __cleanup_ptr
003210c2   __ctypes_
0000cdda   __dtors_ptr
0000cdd6   __lock
0031ad66   __log
0031b0f1   __nop
00319392   __printfi
0031b0ed   __register_lock
0031b0e9   __register_unlock
0000d5bc   __stack
0000cdd4   __unlock
0031b046   _abort
0031ab78   _atan
0031a882   _atan2
0031ae35   _atoi
00317bf2   _aux_do_check
00316c64   _booting_setting_check
0031adba   _c_int00
0000d2dc   _cb_cancel1
0000d2e8   _cb_cancel2
0000d2b4   _cb_fail1
0000d2e0   _cb_fail2
0000d2ac   _cb_good1
0000d2b8   _cb_good2
0000d04c   _cb_status_view1
0000d078   _cb_status_view2
00316a75   _comm_drive
0000d2bc   _comm_set1
0000d2c8   _comm_set2
0000d2c0   _comm_view1
0000d214   _commx
0031ac54   _cos
00321786   _cos_50Hz
0032179e   _cos_60Hz
0000c0c0   _cos_table
0000d0b8   _cpt1
0000d048   _cpt2
00319d4a   _cpu_setup
0000cf28   _ct_ratio_set1
0000cf3c   _ct_ratio_set2
0000cf30   _ct_ratio_set3
0000cf04   _ct_ratio_set4
0000ceb4   _ct_ratio_view1
0000ce64   _ct_ratio_view2
0000cf8c   _ct_ratio_view3
0000cf84   _ct_ratio_view4
0000d1dc   _current1
0000d1d8   _current2
0000d1e4   _current3
0000d1e0   _current4
0000d1cc   _current5
0000d1c8   _current6
0000d1d4   _current7
0030a20a   _cursor_move
0030a219   _cursor_move_last
0000ce54   _data_reset1
0000ce40   _data_reset2
0000ce3a   _data_reset3
00319495   _delay
0000d2fc   _delay_set1
00009f14   _delay_us
0000d198   _delta_vdf1
0000d188   _di1
0000cefc   _di_set1
0000cf88   _di_set2
0000cfa0   _di_set3
0000cf7c   _di_set4
0000cf78   _di_set5
0000cf80   _di_set6
0000cf9c   _di_set7
0000cff0   _di_set8
0000cf94   _di_set_view1
0000cf90   _di_set_view2
0000cfa4   _di_set_view3
0000cf98   _di_set_view4
0000d014   _diag1
0000d028   _diag2
0000d01c   _diag3
0000d1a0   _didocb1
0000d18c   _didocb2
0000d144   _display1
0000d15c   _display2
0000d158   _display3
0000d164   _display4
0000d194   _do1
0000d190   _do2
00008e4b   _do_release
0000d044   _docb1
0000d050   _docb2
0000d36c   _dsgr_set1
0000d364   _dsgr_set2
0000d35c   _dsgr_set3
0000d360   _dsgr_set4
0000d390   _dsgr_view1
0000d384   _dsgr_view2
0000d368   _dsgr_view3
0000d4c8   _dumpP
0000d03c   _east_egg1
0000d038   _east_egg2
0000d2ec   _east_egg3
00319694   _eerom_control
0031978f   _eerom_read
003196fc   _eerom_write
0000cddc   _errno
0000ce50   _etc1
0000ce44   _etc2
0000ce68   _etc3
0000cfc0   _etc_view1
0000cfb4   _etc_view2
0000ce90   _event1
0000ced4   _event10
0000cec0   _event11
0000cecc   _event12
0000ce8c   _event2
0000cea0   _event3
0000ce94   _event4
0000cec8   _event5
0000ce98   _event6
0000ce74   _event8
0000ce80   _event9
0000d3e4   _event_control
0000ceac   _event_d
00009d92   _event_direct_save
00318640   _event_info_update
0000d452   _event_io
0000d424   _event_mode_change
0000d440   _event_phase
0000d480   _event_relay
0000d3ec   _event_reset
0000d466   _event_set
0000ced0   _event_t
0000ce08   _event_test
0000ce9c   _eventx
0031b048   _exit
0031abea   _exp
00319820   _flash_sector_erase
0031983d   _flash_word_write
00009ac6   _float_to_8bit_fram
0031b05f   _frexp
0000cf48   _gr_set1
0000cf4c   _gr_set_view1
0000d138   _gr_view1
0000d134   _gr_view2
0000d140   _gr_view3
0000d13c   _gr_view4
0000d128   _gr_view5
0000d124   _gr_view6
0000d2d0   _h50_set1
0000d100   _h50_view1
0000d0fc   _h50_view2
0000d2e4   _h50_view3
003156c8   _harmonic_real_imag_calculation
003155c4   _harmonic_sample_backup
0031509f   _harmonics
0000d180   _harmonics1
0000d16c   _harmonics2
0000d168   _harmonics3
0000d174   _harmonics4
0000d170   _harmonics5
0000d19c   _harmonics6
00321410   _harmonics_1st_cos
00321458   _harmonics_1st_sin
003214a0   _harmonics_3rd_cos
003214e8   _harmonics_3rd_sin
00321530   _harmonics_5th_cos
00321578   _harmonics_5th_sin
003215c0   _harmonics_7th_cos
00321608   _harmonics_7th_sin
00321650   _harmonics_9th_cos
00321698   _harmonics_9th_sin
0000cfac   _hidden1
00315062   _himix_crc
003148a7   _himix_drive
003218b2   _himix_number
00009f43   _i2c_read
00319f4d   _i2c_setup
00009f83   _i2c_write
00315bd0   _interrupt_control
00319dc2   _interrupt_setup
00009fc2   _key_drive
0000d2b0   _l_cb_close
0000d2c4   _l_cb_open
0000cf70   _lc_set1
0000cf64   _lc_set2
0000ce4c   _lc_set3
0000ce48   _lc_view1
0000a058   _lcd_character_write
0000a03b   _lcd_control_write
00319f78   _lcd_setup
0031ae00   _ldexp
00319ca7   _led_handling
0000cfbc   _led_test1
0031ae95   _ltoa
0031489a   _main
0000a075   _make_crc_send
00315c2e   _manager_handling
00315a69   _measure2_display
0031590f   _measure_display
0000d160   _measuremnt1
0000d14c   _measuremnt2
0000d148   _measuremnt3
0000d154   _measuremnt4
0031b0b4   _memccpy
0031b10c   _memset
0030a24f   _menu_00_00
0030a2cf   _menu_00_01
0030a31c   _menu_00_02
0030a38c   _menu_00_03
0030a3e1   _menu_00_04
0030a436   _menu_00_05
0030a48b   _menu_00_06
0030a4e0   _menu_00_07
0030a531   _menu_00_08
0030a582   _menu_01_01
0030a5d8   _menu_01_03
0030a625   _menu_01_04
0030a6a6   _menu_01_05
0030a6e3   _menu_01_06
0030a730   _menu_01_07
0030a799   _menu_01_08
0030a810   _menu_01_09
0030a879   _menu_01_10
0030a8f0   _menu_01_11
0030a959   _menu_01_12
0030a9d0   _menu_01_13
0030aa21   _menu_01_14
0030aa72   _menu_02_01
0030aaaa   _menu_02_03
0030aafb   _menu_02_04
0030ab70   _menu_02_05
0030abbf   _menu_02_06
0030ac0e   _menu_03_03
0030ac77   _menu_04_02
00312741   _menu_100_04
003127ab   _menu_100_05
003127dc   _menu_100_06
00312845   _menu_100_07
00312868   _menu_100_08
0031288b   _menu_101_04
003128e7   _menu_101_05
0031293e   _menu_101_06
00312975   _menu_101_07
003129e1   _menu_101_08
00312a04   _menu_101_09
00312a27   _menu_102_05
00312a6b   _menu_102_06
00312a96   _menu_103_04
00312afd   _menu_103_05
00312b48   _menu_103_06
00312b83   _menu_103_07
00312bee   _menu_103_08
00312c11   _menu_103_09
00312c34   _menu_104_04
00312c9b   _menu_104_05
00312d2e   _menu_104_06
00312d59   _menu_104_07
00312d8d   _menu_104_08
00312dee   _menu_104_09
00312e59   _menu_104_10
00312e7c   _menu_104_11
00312e9f   _menu_150_01
00312f05   _menu_150_02
00312f5b   _menu_151_01
0031307a   _menu_151_02
003130e0   _menu_151_03
00313146   _menu_151_04
003131ad   _menu_151_05
00313251   _menu_151_06
0031326b   _menu_151_07
00313285   _menu_152_01
003132e3   _menu_152_02
00313316   _menu_152_03
003133b1   _menu_152_04
00313457   _menu_152_05
00313482   _menu_153_01
00313501   _menu_153_02
003135c5   _menu_153_03
00313689   _menu_153_04
0031374d   _menu_153_05
003138dd   _menu_153_06
003139a1   _menu_153_07
00313a65   _menu_153_08
00313b29   _menu_153_09
00313bf3   _menu_153_10
00313d76   _menu_153_11
00313d99   _menu_153_12
00313dbc   _menu_154_02
00313e13   _menu_154_03
00313e36   _menu_154_04
00313e59   _menu_156_02
00313eed   _menu_156_03
00313f81   _menu_156_04
00314015   _menu_156_05
003140a9   _menu_156_06
0031413d   _menu_156_07
003141d1   _menu_156_08
00314265   _menu_156_09
003142fc   _menu_156_10
0031432d   _menu_156_11
0031435e   _menu_156_12
0031438f   _menu_156_13
003143bd   _menu_156_14
00314434   _menu_156_15
00314457   _menu_156_16
0031447a   _menu_157_02
00314509   _menu_157_03
00314572   _menu_157_04
00314595   _menu_157_05
0030acb7   _menu_29_02
0030ad1a   _menu_29_03
0030ad2b   _menu_41_02
0030ad76   _menu_41_03
0030ae0e   _menu_41_04
0030ae7a   _menu_41_05
0030af29   _menu_41_06
0030afbc   _menu_41_07
0030afe5   _menu_41_08
0030b01f   _menu_41_09
0030b080   _menu_41_10
0030b0ed   _menu_41_11
0030b110   _menu_41_12
0030b133   _menu_42_01
0030b1de   _menu_42_02
0030b1fd   _menu_42_03
0030b299   _menu_42_05
0030b349   _menu_42_06
0030b3f1   _menu_42_07
0030b484   _menu_42_08
0030b4ad   _menu_42_09
0030b507   _menu_42_10
0030b568   _menu_42_11
0030b5d7   _menu_42_12
0030b5fa   _menu_42_13
0030b61d   _menu_43_03
0030b7bb   _menu_43_04
0030b827   _menu_43_05
0030b8d6   _menu_43_06
0030b969   _menu_43_07
0030b992   _menu_43_08
0030b9cc   _menu_43_09
0030ba2d   _menu_43_10
0030ba9a   _menu_43_11
0030babd   _menu_43_12
0030bae0   _menu_44_03
0030bc2a   _menu_44_05
0030bcda   _menu_44_06
0030bd82   _menu_44_07
0030be15   _menu_44_08
0030be3e   _menu_44_09
0030be98   _menu_44_10
0030bef9   _menu_44_11
0030bf68   _menu_44_12
0030bf8b   _menu_44_13
0030bfae   _menu_45_03
0030c037   _menu_45_04
0030c0b2   _menu_45_05
0030c162   _menu_45_06
0030c20a   _menu_45_07
0030c29d   _menu_45_08
0030c2d7   _menu_45_09
0030c331   _menu_45_10
0030c392   _menu_45_11
0030c401   _menu_45_12
0030c424   _menu_45_13
0030c447   _menu_46_04
0030c4c2   _menu_46_05
0030c572   _menu_46_06
0030c61a   _menu_46_07
0030c6ad   _menu_46_08
0030c6e7   _menu_46_09
0030c741   _menu_46_10
0030c7a2   _menu_46_11
0030c811   _menu_46_12
0030c834   _menu_46_13
0030c857   _menu_47_04
0030c8c3   _menu_47_05
0030c972   _menu_47_06
0030ca05   _menu_47_07
0030ca2e   _menu_47_08
0030ca68   _menu_47_09
0030cac9   _menu_47_10
0030cb36   _menu_47_11
0030cb59   _menu_47_12
0030cb7c   _menu_48_05
0030cc2b   _menu_48_06
0030ccd3   _menu_48_07
0030cd66   _menu_48_08
0030cd8f   _menu_48_09
0030cde9   _menu_48_10
0030ce4a   _menu_48_11
0030ceb9   _menu_48_12
0030cedc   _menu_48_13
0030ceff   _menu_49_04
0030cf7a   _menu_49_05
0030d02a   _menu_49_06
0030d0d2   _menu_49_07
0030d165   _menu_49_08
0030d19f   _menu_49_09
0030d1f9   _menu_49_10
0030d25a   _menu_49_11
0030d2c9   _menu_49_12
0030d2ec   _menu_49_13
0030d30f   _menu_50_04
0030d427   _menu_50_05
0030d4c1   _menu_50_06
0030d554   _menu_50_07
0030d589   _menu_50_08
0030d5be   _menu_50_09
0030d61f   _menu_50_10
0030d68c   _menu_50_11
0030d6af   _menu_50_12
0030d6d2   _menu_51_04
0030d846   _menu_51_05
0030d8e0   _menu_51_06
0030d973   _menu_51_07
0030d9a8   _menu_51_08
0030d9dd   _menu_51_09
0030da3e   _menu_51_10
0030daab   _menu_51_11
0030dace   _menu_51_12
0030daf1   _menu_52_04
0030dc65   _menu_52_05
0030dcff   _menu_52_06
0030dd92   _menu_52_07
0030ddc7   _menu_52_08
0030ddfc   _menu_52_09
0030de5d   _menu_52_10
0030deca   _menu_52_11
0030deed   _menu_52_12
0030df10   _menu_53_04
0030e084   _menu_53_05
0030e11e   _menu_53_06
0030e1b1   _menu_53_07
0030e1e6   _menu_53_08
0030e21b   _menu_53_09
0030e27c   _menu_53_10
0030e2e9   _menu_53_11
0030e30c   _menu_53_12
0030e32f   _menu_54_04
0030e447   _menu_54_05
0030e4e1   _menu_54_06
0030e574   _menu_54_07
0030e5a9   _menu_54_08
0030e5de   _menu_54_09
0030e63f   _menu_54_10
0030e6ac   _menu_54_11
0030e6cf   _menu_54_12
0030e6f2   _menu_55_04
0030e7bf   _menu_55_05
0030e8d6   _menu_55_06
0030e970   _menu_55_07
0030ea03   _menu_55_08
0030ea2c   _menu_55_09
0030ea6d   _menu_55_10
0030eace   _menu_55_11
0030eb3d   _menu_55_12
0030eb60   _menu_55_13
0030eb83   _menu_56_05
0030ec9a   _menu_56_06
0030ed42   _menu_56_07
0030edd5   _menu_56_08
0030edfe   _menu_56_09
0030ee3f   _menu_56_10
0030eea0   _menu_56_11
0030ef0f   _menu_56_12
0030ef32   _menu_56_13
0030ef55   _menu_57_04
0030f007   _menu_57_05
0030f0ec   _menu_57_06
0030f17f   _menu_57_07
0030f1a8   _menu_57_08
0030f1dd   _menu_57_09
0030f23e   _menu_57_10
0030f2ab   _menu_57_11
0030f2ce   _menu_57_12
0030f2f1   _menu_58_05
0030f3e9   _menu_58_06
0030f491   _menu_58_07
0030f524   _menu_58_08
0030f54d   _menu_58_09
0030f58e   _menu_58_10
0030f5ef   _menu_58_11
0030f65e   _menu_58_12
0030f681   _menu_58_13
0030f6a4   _menu_59_04
0030f790   _menu_59_05
0030f889   _menu_59_06
0030f923   _menu_59_07
0030f9b1   _menu_59_08
0030fa44   _menu_59_09
0030fa88   _menu_59_10
0030fac9   _menu_59_11
0030faf8   _menu_59_12
0030fb59   _menu_59_13
0030fbca   _menu_59_14
0030fbed   _menu_59_15
0030fc10   _menu_60_04
0030fcf5   _menu_60_05
0030fdee   _menu_60_06
0030fe88   _menu_60_07
0030ff16   _menu_60_08
0030ffa9   _menu_60_09
0030ffde   _menu_60_10
0031001f   _menu_60_11
0031004e   _menu_60_12
003100af   _menu_60_13
00310120   _menu_60_14
00310143   _menu_60_15
00310166   _menu_80_03
00310223   _menu_80_04
003102d4   _menu_80_05
00310363   _menu_80_06
003103f2   _menu_80_07
00310481   _menu_80_08
00310510   _menu_80_09
0031059f   _menu_80_10
003105ee   _menu_80_11
00310794   _menu_80_12
003107b7   _menu_80_13
003107da   _menu_81_03
0031085b   _menu_81_04
00310916   _menu_81_05
003109c6   _menu_81_06
00310a8e   _menu_81_07
00310bfb   _menu_81_08
00310c8e   _menu_81_09
00310d0b   _menu_81_10
00310d81   _menu_81_11
00310da4   _menu_81_12
00310dc7   _menu_82_03
00310e2b   _menu_82_04
00310ea8   _menu_82_05
00310f27   _menu_82_06
00310fa6   _menu_82_07
00311023   _menu_82_08
003110a0   _menu_82_09
00311120   _menu_82_10
0031115b   _menu_82_11
003111ae   _menu_82_12
003111d1   _menu_82_13
003111f4   _menu_83_03
0031125d   _menu_83_04
003112b4   _menu_83_05
00311307   _menu_83_06
00311394   _menu_83_07
003113b7   _menu_83_08
003113da   _menu_84_03
00311447   _menu_84_05
003114d7   _menu_84_06
0031152a   _menu_84_07
0031154d   _menu_84_08
00311570   _menu_84_09
00311593   _menu_85_03
00311611   _menu_85_04
00311664   _menu_85_05
00311687   _menu_85_06
003116aa   _menu_86_03
0031171e   _menu_86_04
00311771   _menu_86_05
00311794   _menu_86_06
003117b7   _menu_87_03
00311831   _menu_87_04
00311884   _menu_87_05
003118a7   _menu_87_06
003118ca   _menu_88_03
00311940   _menu_88_04
003119d0   _menu_88_05
003119ff   _menu_88_06
00311a68   _menu_88_07
00311a8b   _menu_88_08
00311aae   _menu_89_03
00311b31   _menu_89_04
00311b8a   _menu_89_05
00311bf3   _menu_89_06
00311c16   _menu_89_07
00311c39   _menu_90_03
00311c81   _menu_90_04
00311cd4   _menu_90_05
00311cf7   _menu_90_06
00311d1a   _menu_91_04
00311dab   _menu_91_05
00311dda   _menu_91_06
00311e43   _menu_91_07
00311e66   _menu_91_08
00311e89   _menu_92_04
00311f21   _menu_92_05
00311f9b   _menu_92_06
00311fed   _menu_92_07
00312058   _menu_92_08
0031207b   _menu_92_09
0031209e   _menu_95_04
00312105   _menu_95_05
0031214d   _menu_95_06
0031219a   _menu_95_07
00312207   _menu_95_08
0031222a   _menu_95_09
0031224d   _menu_96_05
00312278   _menu_97_04
003122f8   _menu_97_05
0031237b   _menu_97_06
003123b2   _menu_97_07
0031240d   _menu_97_08
00312430   _menu_97_09
00312453   _menu_98_04
003124bc   _menu_98_05
00312525   _menu_98_06
00312585   _menu_98_07
003125b9   _menu_98_08
003125f5   _menu_98_09
00312662   _menu_98_10
00312685   _menu_98_11
00314613   _menu_99_00
003126a8   _menu_99_04
003126fb   _menu_99_05
0031271e   _menu_99_06
0000a168   _menu_drive
003145b8   _menu_dummy
0031486d   _menu_init
003145d7   _menu_popup
0031f4a2   _menu_tables
0000d21c   _motor_set1
0000d228   _motor_set2
0000d224   _motor_set3
0000d1f4   _motor_view1
0000d220   _motor_view2
0000d260   _n47_set1
0000d25c   _n47_view1
0000d27c   _nch_set1
0000d288   _nch_set2
0000d284   _nch_set3
0000d270   _nch_set4
0000d26c   _nch_view1
0000d278   _nch_view2
0000d0f0   _nch_view4
0000d0ec   _nch_view5
0000d1ec   _nsocr_set1
0000d1f8   _nsocr_view1
0000d0d0   _nsocr_view4
0000d0cc   _nsocr_view5
0000d30c   _ocgr50_set1
0000d320   _ocgr50_view1
0000d314   _ocgr50_view2
0000d38c   _ocgr51_set1
0000d388   _ocgr51_view1
0000d2f8   _ocr50_set1
0000d31c   _ocr50_view1
0000d318   _ocr50_view2
0000d348   _ocr51_set1
0000d310   _ocr51_view1
0000cf68   _ocr_pro_set1
0000cf74   _ocr_pro_set2
0000cf60   _ocr_pro_view1
0000cf5c   _ocr_pro_view2
0000d120   _ocr_view1
0000d11c   _ocr_view2
0000d108   _ocr_view3
0000d104   _ocr_view4
0000d110   _ocr_view5
0000d10c   _ocr_view6
00008ebb   _over_phase_value_check
0000d370   _ovgr_set1
0000d374   _ovgr_view1
0000d240   _ovgr_view2
0000d0d8   _ovgr_view4
0000d0d4   _ovgr_view5
0000d0e0   _ovgr_view6
0000d0dc   _ovgr_view7
0000d37c   _ovr_set1
0000d380   _ovr_view1
0000d378   _ovr_view2
0000d130   _ovr_view4
0000d12c   _ovr_view5
0000d238   _p47_set1
0000d234   _p47_view1
0000ce1e   _p_view_format1
0000ce32   _p_view_format10
0000ce26   _p_view_format100
0000ce78   _p_view_format100g
0000ced8   _p_view_format100k
0000ce88   _p_view_format100m
0000ce84   _p_view_format10g
0000ceb8   _p_view_format10k
0000ce7c   _p_view_format10m
0000ce70   _p_view_format1g
0000cebc   _p_view_format1k
0000cec4   _p_view_format1m
0000cf54   _password_input1
0000cf50   _password_input2
0000cf6c   _password_set1
00319d68   _pll_setup
0031acb5   _pow
0000d1d0   _power1
0000d17c   _power2
0000d178   _power3
0000d184   _power4
00009b57   _power_update
0000901b   _protective_relay
0000cee0   _pt_ratio_set1
0000cee4   _pt_ratio_set2
0000cf00   _pt_ratio_set3
0000cef4   _pt_ratio_view1
0000cf18   _pt_ratio_view10
0000cf24   _pt_ratio_view11
0000cf10   _pt_ratio_view12
0000cf14   _pt_ratio_view13
0000cf1c   _pt_ratio_view14
0000cf20   _pt_ratio_view15
0000cf38   _pt_ratio_view16
0000cef8   _pt_ratio_view2
0000cf0c   _pt_ratio_view3
0000cef0   _pt_ratio_view4
0000cedc   _pt_ratio_view5
0000cee8   _pt_ratio_view6
0000ceec   _pt_ratio_view7
0000cf40   _pt_ratio_view8
0000cf34   _pt_ratio_view9
00317c12   _pt_setting_min_max_check
0000cf08   _pt_wiring_set1
0000cf2c   _pt_wiring_view1
0000d1a4   _q_value
0000994e   _real_main
0000d098   _relay1
0000d0c0   _relay10
0000d0bc   _relay11
0000d0a8   _relay12
0000d0a4   _relay13
0000d0b0   _relay14
0000d0ac   _relay15
0000d058   _relay16
0000d094   _relay2
0000d0a0   _relay3
0000d09c   _relay4
0000d088   _relay5
0000d084   _relay6
0000d090   _relay7
0000d08c   _relay8
0000d0b4   _relay9
0000d40c   _relay_curve
00008dd2   _relay_detect_to_pickup
00008ea9   _relay_dropout_to_normal
0000d344   _relay_mode1
0000d340   _relay_mode2
0000d354   _relay_mode3
0000d300   _relay_mode4
00008dcd   _relay_normal_to_detect
0000d358   _relay_onoff1
00008e41   _relay_opeartion_to_dropout
00008de5   _relay_pickup_to_operation
0000cea8   _relay_popup1
0000ceb0   _relay_popup2
0000cfec   _relay_popup3
0000cff8   _relay_popup4
0000cfe4   _relay_popup5
0000cfe0   _relay_popup6
0000cff4   _relay_popup7
0000cfe8   _relay_popup8
0000d00c   _relay_popup9
0000d304   _relay_relay1
0000d2f4   _relay_set_view1
0000d008   _relay_test1
0000d024   _relay_test2
0000d000   _relay_test3
0000cffc   _relay_test4
0000d010   _relay_test5
0000ce16   _reset1
0000ce1a   _reset2
0000ce12   _reset3
0000ce2e   _resetq
00009e24   _rtc_handling
0000cfd4   _run_time
0000d2d4   _s_l_set1
0000d280   _s_l_set2
0000d2cc   _s_l_view1
0000d2d8   _s_l_view2
0000ce0a   _save1
0000ce0e   _save_cancel1
0000ce2a   _save_confirm1
0000ce36   _save_fail1
0000ce22   _save_no1
00319e19   _sci_setup
0000d4da   _scrP
0030a220   _screen_frame
0030a230   _screen_frame2
0030a23f   _screen_frame3
0000a0da   _serial_ok_nak_send
003169c9   _serial_write
0000d418   _set_integer
0000d054   _setting1
0000d060   _setting2
0000d05c   _setting3
003185e0   _setting_load
00317bff   _setting_min_max_check
00317c6b   _setting_post_handling
00317c26   _setting_save
0031ad0f   _sin
003217b6   _sin_50Hz
003217ce   _sin_60Hz
0000c0d8   _sin_table
0000d400   _six_point_2
0000d0e8   _sl_view1
0000d0e4   _sl_view2
0000d338   _sovr_view1
0000d324   _sovr_view2
0031ae66   _sprintf
0031af16   _sqrt
0031b0fb   _strcpy
0031b0df   _strlen
00009b10   _supervision_relay
0000d068   _supervison_set1
0000d064   _supervison_set2
0000d070   _supervison_set3
0000d06c   _supervison_set4
0000d118   _supervison_set5
0000d114   _supervison_set6
0000d074   _supervison_view1
0000d080   _supervison_view2
0000d07c   _supervison_view3
0000d268   _sync_set1
0000d264   _sync_set2
0000d250   _sync_set3
0000d24c   _sync_set4
0000d258   _sync_view1
0000d254   _sync_view2
0000d200   _sync_view3
0000d328   _syncro_view1
0000d33c   _syncro_view2
0000d330   _syncro_view3
0000d334   _syncro_view4
0000cfd8   _sys_time
0000d290   _system_set1
0000d28c   _system_set2
0000d298   _system_set3
0000d294   _system_set4
0000cea4   _system_set5
0000ce6c   _system_set6
0000d274   _system_view1
0000d2a0   _system_view2
0000d29c   _system_view3
0000d2a8   _system_view4
0000d2a4   _system_view5
0000cfb8   _test2
0000cfc4   _test3
0000cfb0   _test4
0000d20c   _thr_set1
0000d218   _thr_set2
0000d210   _thr_view1
0000d0f8   _thr_view4
0000d0f4   _thr_view5
0000d004   _time_set1
0000cfcc   _time_set2
0000cfc8   _time_set3
0000cfdc   _time_set4
0000cfd0   _time_set5
0000d020   _time_set6
0000d02c   _time_set7
0000d018   _time_set8
0000d308   _tl_set1
0000d1fc   _ucr_set1
0000d208   _ucr_set2
0000d204   _ucr_view1
0000d1f0   _ucr_view2
0000d0c8   _ucr_view3
0000d0c4   _ucr_view4
00008f43   _under_phase_value_check
0000d23c   _uvr_set1
0000d248   _uvr_set2
0000d244   _uvr_set_view1
0000d230   _uvr_set_view2
0000d22c   _uvr_set_view3
0000d1e8   _uvr_view1
0000d394   _uvr_view2
0000d350   _uvr_view3
0000d2f0   _uvr_view4
0000d32c   _uvr_view5
0000d34c   _uvr_view6
0000d3cc   _view_format1
0000d3b6   _view_format10
0000d3c6   _view_format100
0000d3aa   _view_format100g
0000d398   _view_format100k
0000d3de   _view_format100m
0000d3a4   _view_format10g
0000d3b0   _view_format10k
0000d3c0   _view_format10m
0000d3d2   _view_format1g
0000d39e   _view_format1k
0000d3d8   _view_format1m
0000d150   _volt1
0000d1bc   _volt2
0000d1b8   _volt3
0000d1c4   _volt4
0000d1c0   _volt5
0000d1ac   _volt6
0000d1a8   _volt7
0000d1b4   _volt8
0000d1b0   _volt9
0000ce5c   _wave1
0000ce58   _wave2
0000ce60   _wave3
003217fe   _wave_buffer_address
00321812   _wave_buffer_post_address
003198b8   _wave_di_initial_post
0031989d   _wave_di_initial_pre1
003198ab   _wave_di_initial_pre2
0000a118   _wave_dump_serial_sram
003198c2   _wave_flash_sector_erase
00319854   _wave_flash_word_write
003198db   _wave_save_process
00319893   _wave_vi_initial_post
00319878   _wave_vi_initial_pre1
00319886   _wave_vi_initial_pre2
0000cf44   _zct_set1
0000cf58   _zct_view1
ffffffff   binit
00321acc   cinit
0033fff6   code_start
0031b113   etext
ffffffff   pinit


GLOBAL SYMBOLS: SORTED BY Symbol Address 

address    name
--------   ----
00000001   __TI_args_main
00000400   __STACK_SIZE
00000d00   _PieVectTable
00008000   _RamfuncsRunStart
00008000   _XINT3_ISR
00008bf5   _TINT1_ISR
00008d38   _SCIRXB_ISR
00008d7b   _SCITXINTB_ISR
00008da0   _SCITXINTC_ISR
00008dcd   _relay_normal_to_detect
00008dd2   _relay_detect_to_pickup
00008de5   _relay_pickup_to_operation
00008e41   _relay_opeartion_to_dropout
00008e4b   _do_release
00008ea9   _relay_dropout_to_normal
00008ebb   _over_phase_value_check
00008f43   _under_phase_value_check
00008fc5   _OCR50_1_RELAY
0000901b   _protective_relay
000098d2   _Inverse_Op_Timeset
0000994e   _real_main
00009ac6   _float_to_8bit_fram
00009b10   _supervision_relay
00009b57   _power_update
00009d92   _event_direct_save
00009e24   _rtc_handling
00009f14   _delay_us
00009f43   _i2c_read
00009f83   _i2c_write
00009fc2   _key_drive
0000a03b   _lcd_control_write
0000a058   _lcd_character_write
0000a075   _make_crc_send
0000a0da   _serial_ok_nak_send
0000a118   _wave_dump_serial_sram
0000a168   _menu_drive
0000a1ef   _InitFlash
0000a205   _DSP28x_usDelay
0000c000   _LOCAL_CONTROL
0000c001   _Calibration_Menu_Escape
0000c002   _TIMER1
0000c004   _MIN_MAX
0000c006   _DISPLAY_3PHASE
0000c008   _AUTO_DISPLAY
0000c00a   _PASSWORD
0000c00c   _ADDRESS
0000c00e   _GR_ANGLE
0000c010   _CORE
0000c013   _DIGITAL_OUTPUT
0000c016   _PROTECT
0000c01a   _DSGR_ANGLE
0000c01e   _SYSTEM_ALARM
0000c022   _COMM
0000c026   _MODBUS
0000c02a   _GPT
0000c02e   _FLASH
0000c032   _OCR_MODE_SET
0000c037   _SYSTEM_SET
0000c040   _TIMER0
0000c046   _UVR_MODE
0000c04c   _LOCAL_CTRL
0000c052   _DIDO
0000c05e   _ACCUMULATION
0000c06a   _RELAY_STATUS
0000c080   _TIMER
0000c08c   _WAVE
0000c098   _DIGITAL_INPUT
0000c0aa   _CPT
0000c0c0   _cos_table
0000c0d8   _sin_table
0000c100   _TIME
0000c118   _OCGR50
0000c140   _UVR_1
0000c15a   _SYSTEM
0000c180   _OCR50_2
0000c19a   _P47
0000c1c0   _N47
0000c1da   _UVR_2
0000c200   _UVR_3
0000c21a   _OCR50_1
0000c240   _OVGR
0000c260   _SUPERVISION
0000c280   _OCGR51
0000c2c0   _OVR
0000c300   _OCR51_1
0000c340   _OCR51_2
0000c380   _EVENT
0000c3c0   _SGR
0000c400   _DGR
0000c440   _DFT
0000c480   _HIMIX
0000c500   _HARMONICS
0000c580   _LCD
0000c600   _DISPLAY
0000c700   _CALIBRATION
0000c840   _MEASUREMENT
0000c980   _SAMPLE
0000cbc0   _MANAGER
0000cdd4   __unlock
0000cdd6   __lock
0000cdd8   __cleanup_ptr
0000cdda   __dtors_ptr
0000cddc   _errno
0000ce01   _Data_Change
0000ce03   _Button_Press
0000ce04   _KHS_Key_Press
0000ce05   _Set_Password
0000ce06   _Data_Change_Count
0000ce08   _event_test
0000ce0a   _save1
0000ce0e   _save_cancel1
0000ce12   _reset3
0000ce16   _reset1
0000ce1a   _reset2
0000ce1e   _p_view_format1
0000ce22   _save_no1
0000ce26   _p_view_format100
0000ce2a   _save_confirm1
0000ce2e   _resetq
0000ce32   _p_view_format10
0000ce36   _save_fail1
0000ce3a   _data_reset3
0000ce40   _data_reset2
0000ce44   _etc2
0000ce48   _lc_view1
0000ce4c   _lc_set3
0000ce50   _etc1
0000ce54   _data_reset1
0000ce58   _wave2
0000ce5c   _wave1
0000ce60   _wave3
0000ce64   _ct_ratio_view2
0000ce68   _etc3
0000ce6c   _system_set6
0000ce70   _p_view_format1g
0000ce74   _event8
0000ce78   _p_view_format100g
0000ce7c   _p_view_format10m
0000ce80   _event9
0000ce84   _p_view_format10g
0000ce88   _p_view_format100m
0000ce8c   _event2
0000ce90   _event1
0000ce94   _event4
0000ce98   _event6
0000ce9c   _eventx
0000cea0   _event3
0000cea4   _system_set5
0000cea8   _relay_popup1
0000ceac   _event_d
0000ceb0   _relay_popup2
0000ceb4   _ct_ratio_view1
0000ceb8   _p_view_format10k
0000cebc   _p_view_format1k
0000cec0   _event11
0000cec4   _p_view_format1m
0000cec8   _event5
0000cecc   _event12
0000ced0   _event_t
0000ced4   _event10
0000ced8   _p_view_format100k
0000cedc   _pt_ratio_view5
0000cee0   _pt_ratio_set1
0000cee4   _pt_ratio_set2
0000cee8   _pt_ratio_view6
0000ceec   _pt_ratio_view7
0000cef0   _pt_ratio_view4
0000cef4   _pt_ratio_view1
0000cef8   _pt_ratio_view2
0000cefc   _di_set1
0000cf00   _pt_ratio_set3
0000cf04   _ct_ratio_set4
0000cf08   _pt_wiring_set1
0000cf0c   _pt_ratio_view3
0000cf10   _pt_ratio_view12
0000cf14   _pt_ratio_view13
0000cf18   _pt_ratio_view10
0000cf1c   _pt_ratio_view14
0000cf20   _pt_ratio_view15
0000cf24   _pt_ratio_view11
0000cf28   _ct_ratio_set1
0000cf2c   _pt_wiring_view1
0000cf30   _ct_ratio_set3
0000cf34   _pt_ratio_view9
0000cf38   _pt_ratio_view16
0000cf3c   _ct_ratio_set2
0000cf40   _pt_ratio_view8
0000cf44   _zct_set1
0000cf48   _gr_set1
0000cf4c   _gr_set_view1
0000cf50   _password_input2
0000cf54   _password_input1
0000cf58   _zct_view1
0000cf5c   _ocr_pro_view2
0000cf60   _ocr_pro_view1
0000cf64   _lc_set2
0000cf68   _ocr_pro_set1
0000cf6c   _password_set1
0000cf70   _lc_set1
0000cf74   _ocr_pro_set2
0000cf78   _di_set5
0000cf7c   _di_set4
0000cf80   _di_set6
0000cf84   _ct_ratio_view4
0000cf88   _di_set2
0000cf8c   _ct_ratio_view3
0000cf90   _di_set_view2
0000cf94   _di_set_view1
0000cf98   _di_set_view4
0000cf9c   _di_set7
0000cfa0   _di_set3
0000cfa4   _di_set_view3
0000cfac   _hidden1
0000cfb0   _test4
0000cfb4   _etc_view2
0000cfb8   _test2
0000cfbc   _led_test1
0000cfc0   _etc_view1
0000cfc4   _test3
0000cfc8   _time_set3
0000cfcc   _time_set2
0000cfd0   _time_set5
0000cfd4   _run_time
0000cfd8   _sys_time
0000cfdc   _time_set4
0000cfe0   _relay_popup6
0000cfe4   _relay_popup5
0000cfe8   _relay_popup8
0000cfec   _relay_popup3
0000cff0   _di_set8
0000cff4   _relay_popup7
0000cff8   _relay_popup4
0000cffc   _relay_test4
0000d000   _relay_test3
0000d004   _time_set1
0000d008   _relay_test1
0000d00c   _relay_popup9
0000d010   _relay_test5
0000d014   _diag1
0000d018   _time_set8
0000d01c   _diag3
0000d020   _time_set6
0000d024   _relay_test2
0000d028   _diag2
0000d02c   _time_set7
0000d030   _Cursor_Position
0000d034   _Screen_Position
0000d038   _east_egg2
0000d03c   _east_egg1
0000d040   _Save_Current_Screen
0000d044   _docb1
0000d048   _cpt2
0000d04c   _cb_status_view1
0000d050   _docb2
0000d054   _setting1
0000d058   _relay16
0000d05c   _setting3
0000d060   _setting2
0000d064   _supervison_set2
0000d068   _supervison_set1
0000d06c   _supervison_set4
0000d070   _supervison_set3
0000d074   _supervison_view1
0000d078   _cb_status_view2
0000d07c   _supervison_view3
0000d080   _supervison_view2
0000d084   _relay6
0000d088   _relay5
0000d08c   _relay8
0000d090   _relay7
0000d094   _relay2
0000d098   _relay1
0000d09c   _relay4
0000d0a0   _relay3
0000d0a4   _relay13
0000d0a8   _relay12
0000d0ac   _relay15
0000d0b0   _relay14
0000d0b4   _relay9
0000d0b8   _cpt1
0000d0bc   _relay11
0000d0c0   _relay10
0000d0c4   _ucr_view4
0000d0c8   _ucr_view3
0000d0cc   _nsocr_view5
0000d0d0   _nsocr_view4
0000d0d4   _ovgr_view5
0000d0d8   _ovgr_view4
0000d0dc   _ovgr_view7
0000d0e0   _ovgr_view6
0000d0e4   _sl_view2
0000d0e8   _sl_view1
0000d0ec   _nch_view5
0000d0f0   _nch_view4
0000d0f4   _thr_view5
0000d0f8   _thr_view4
0000d0fc   _h50_view2
0000d100   _h50_view1
0000d104   _ocr_view4
0000d108   _ocr_view3
0000d10c   _ocr_view6
0000d110   _ocr_view5
0000d114   _supervison_set6
0000d118   _supervison_set5
0000d11c   _ocr_view2
0000d120   _ocr_view1
0000d124   _gr_view6
0000d128   _gr_view5
0000d12c   _ovr_view5
0000d130   _ovr_view4
0000d134   _gr_view2
0000d138   _gr_view1
0000d13c   _gr_view4
0000d140   _gr_view3
0000d144   _display1
0000d148   _measuremnt3
0000d14c   _measuremnt2
0000d150   _volt1
0000d154   _measuremnt4
0000d158   _display3
0000d15c   _display2
0000d160   _measuremnt1
0000d164   _display4
0000d168   _harmonics3
0000d16c   _harmonics2
0000d170   _harmonics5
0000d174   _harmonics4
0000d178   _power3
0000d17c   _power2
0000d180   _harmonics1
0000d184   _power4
0000d188   _di1
0000d18c   _didocb2
0000d190   _do2
0000d194   _do1
0000d198   _delta_vdf1
0000d19c   _harmonics6
0000d1a0   _didocb1
0000d1a4   _q_value
0000d1a8   _volt7
0000d1ac   _volt6
0000d1b0   _volt9
0000d1b4   _volt8
0000d1b8   _volt3
0000d1bc   _volt2
0000d1c0   _volt5
0000d1c4   _volt4
0000d1c8   _current6
0000d1cc   _current5
0000d1d0   _power1
0000d1d4   _current7
0000d1d8   _current2
0000d1dc   _current1
0000d1e0   _current4
0000d1e4   _current3
0000d1e8   _uvr_view1
0000d1ec   _nsocr_set1
0000d1f0   _ucr_view2
0000d1f4   _motor_view1
0000d1f8   _nsocr_view1
0000d1fc   _ucr_set1
0000d200   _sync_view3
0000d204   _ucr_view1
0000d208   _ucr_set2
0000d20c   _thr_set1
0000d210   _thr_view1
0000d214   _commx
0000d218   _thr_set2
0000d21c   _motor_set1
0000d220   _motor_view2
0000d224   _motor_set3
0000d228   _motor_set2
0000d22c   _uvr_set_view3
0000d230   _uvr_set_view2
0000d234   _p47_view1
0000d238   _p47_set1
0000d23c   _uvr_set1
0000d240   _ovgr_view2
0000d244   _uvr_set_view1
0000d248   _uvr_set2
0000d24c   _sync_set4
0000d250   _sync_set3
0000d254   _sync_view2
0000d258   _sync_view1
0000d25c   _n47_view1
0000d260   _n47_set1
0000d264   _sync_set2
0000d268   _sync_set1
0000d26c   _nch_view1
0000d270   _nch_set4
0000d274   _system_view1
0000d278   _nch_view2
0000d27c   _nch_set1
0000d280   _s_l_set2
0000d284   _nch_set3
0000d288   _nch_set2
0000d28c   _system_set2
0000d290   _system_set1
0000d294   _system_set4
0000d298   _system_set3
0000d29c   _system_view3
0000d2a0   _system_view2
0000d2a4   _system_view5
0000d2a8   _system_view4
0000d2ac   _cb_good1
0000d2b0   _l_cb_close
0000d2b4   _cb_fail1
0000d2b8   _cb_good2
0000d2bc   _comm_set1
0000d2c0   _comm_view1
0000d2c4   _l_cb_open
0000d2c8   _comm_set2
0000d2cc   _s_l_view1
0000d2d0   _h50_set1
0000d2d4   _s_l_set1
0000d2d8   _s_l_view2
0000d2dc   _cb_cancel1
0000d2e0   _cb_fail2
0000d2e4   _h50_view3
0000d2e8   _cb_cancel2
0000d2ec   _east_egg3
0000d2f0   _uvr_view4
0000d2f4   _relay_set_view1
0000d2f8   _ocr50_set1
0000d2fc   _delay_set1
0000d300   _relay_mode4
0000d304   _relay_relay1
0000d308   _tl_set1
0000d30c   _ocgr50_set1
0000d310   _ocr51_view1
0000d314   _ocgr50_view2
0000d318   _ocr50_view2
0000d31c   _ocr50_view1
0000d320   _ocgr50_view1
0000d324   _sovr_view2
0000d328   _syncro_view1
0000d32c   _uvr_view5
0000d330   _syncro_view3
0000d334   _syncro_view4
0000d338   _sovr_view1
0000d33c   _syncro_view2
0000d340   _relay_mode2
0000d344   _relay_mode1
0000d348   _ocr51_set1
0000d34c   _uvr_view6
0000d350   _uvr_view3
0000d354   _relay_mode3
0000d358   _relay_onoff1
0000d35c   _dsgr_set3
0000d360   _dsgr_set4
0000d364   _dsgr_set2
0000d368   _dsgr_view3
0000d36c   _dsgr_set1
0000d370   _ovgr_set1
0000d374   _ovgr_view1
0000d378   _ovr_view2
0000d37c   _ovr_set1
0000d380   _ovr_view1
0000d384   _dsgr_view2
0000d388   _ocgr51_view1
0000d38c   _ocgr51_set1
0000d390   _dsgr_view1
0000d394   _uvr_view2
0000d398   _view_format100k
0000d39e   _view_format1k
0000d3a4   _view_format10g
0000d3aa   _view_format100g
0000d3b0   _view_format10k
0000d3b6   _view_format10
0000d3c0   _view_format10m
0000d3c6   _view_format100
0000d3cc   _view_format1
0000d3d2   _view_format1g
0000d3d8   _view_format1m
0000d3de   _view_format100m
0000d3e4   _event_control
0000d3ec   _event_reset
0000d400   _six_point_2
0000d40c   _relay_curve
0000d418   _set_integer
0000d424   _event_mode_change
0000d440   _event_phase
0000d452   _event_io
0000d466   _event_set
0000d480   _event_relay
0000d4c0   _Lcd_Bl_Count
0000d4c2   _LCD_LIGHT
0000d4c4   _LCD_RS
0000d4c6   _VFD_cnt
0000d4c8   _dumpP
0000d4ca   _NorScr
0000d4ce   _ReserveP
0000d4d2   _AckScr
0000d4d6   _FauScr
0000d4da   _scrP
0000d500   _VFDABuffer
0000d540   _VFDNBuffer
0000d580   _VFDFBuffer
0000d5bc   __stack
0000d9bc   __STACK_END
00308000   _RamfuncsLoadStart
0030a209   _RamfuncsLoadEnd
0030a20a   .text
0030a20a   ___text__
0030a20a   _cursor_move
0030a219   _cursor_move_last
0030a220   _screen_frame
0030a230   _screen_frame2
0030a23f   _screen_frame3
0030a24f   _menu_00_00
0030a2cf   _menu_00_01
0030a31c   _menu_00_02
0030a38c   _menu_00_03
0030a3e1   _menu_00_04
0030a436   _menu_00_05
0030a48b   _menu_00_06
0030a4e0   _menu_00_07
0030a531   _menu_00_08
0030a582   _menu_01_01
0030a5d8   _menu_01_03
0030a625   _menu_01_04
0030a6a6   _menu_01_05
0030a6e3   _menu_01_06
0030a730   _menu_01_07
0030a799   _menu_01_08
0030a810   _menu_01_09
0030a879   _menu_01_10
0030a8f0   _menu_01_11
0030a959   _menu_01_12
0030a9d0   _menu_01_13
0030aa21   _menu_01_14
0030aa72   _menu_02_01
0030aaaa   _menu_02_03
0030aafb   _menu_02_04
0030ab70   _menu_02_05
0030abbf   _menu_02_06
0030ac0e   _menu_03_03
0030ac77   _menu_04_02
0030acb7   _menu_29_02
0030ad1a   _menu_29_03
0030ad2b   _menu_41_02
0030ad76   _menu_41_03
0030ae0e   _menu_41_04
0030ae7a   _menu_41_05
0030af29   _menu_41_06
0030afbc   _menu_41_07
0030afe5   _menu_41_08
0030b01f   _menu_41_09
0030b080   _menu_41_10
0030b0ed   _menu_41_11
0030b110   _menu_41_12
0030b133   _menu_42_01
0030b1de   _menu_42_02
0030b1fd   _menu_42_03
0030b299   _menu_42_05
0030b349   _menu_42_06
0030b3f1   _menu_42_07
0030b484   _menu_42_08
0030b4ad   _menu_42_09
0030b507   _menu_42_10
0030b568   _menu_42_11
0030b5d7   _menu_42_12
0030b5fa   _menu_42_13
0030b61d   _menu_43_03
0030b7bb   _menu_43_04
0030b827   _menu_43_05
0030b8d6   _menu_43_06
0030b969   _menu_43_07
0030b992   _menu_43_08
0030b9cc   _menu_43_09
0030ba2d   _menu_43_10
0030ba9a   _menu_43_11
0030babd   _menu_43_12
0030bae0   _menu_44_03
0030bc2a   _menu_44_05
0030bcda   _menu_44_06
0030bd82   _menu_44_07
0030be15   _menu_44_08
0030be3e   _menu_44_09
0030be98   _menu_44_10
0030bef9   _menu_44_11
0030bf68   _menu_44_12
0030bf8b   _menu_44_13
0030bfae   _menu_45_03
0030c037   _menu_45_04
0030c0b2   _menu_45_05
0030c162   _menu_45_06
0030c20a   _menu_45_07
0030c29d   _menu_45_08
0030c2d7   _menu_45_09
0030c331   _menu_45_10
0030c392   _menu_45_11
0030c401   _menu_45_12
0030c424   _menu_45_13
0030c447   _menu_46_04
0030c4c2   _menu_46_05
0030c572   _menu_46_06
0030c61a   _menu_46_07
0030c6ad   _menu_46_08
0030c6e7   _menu_46_09
0030c741   _menu_46_10
0030c7a2   _menu_46_11
0030c811   _menu_46_12
0030c834   _menu_46_13
0030c857   _menu_47_04
0030c8c3   _menu_47_05
0030c972   _menu_47_06
0030ca05   _menu_47_07
0030ca2e   _menu_47_08
0030ca68   _menu_47_09
0030cac9   _menu_47_10
0030cb36   _menu_47_11
0030cb59   _menu_47_12
0030cb7c   _menu_48_05
0030cc2b   _menu_48_06
0030ccd3   _menu_48_07
0030cd66   _menu_48_08
0030cd8f   _menu_48_09
0030cde9   _menu_48_10
0030ce4a   _menu_48_11
0030ceb9   _menu_48_12
0030cedc   _menu_48_13
0030ceff   _menu_49_04
0030cf7a   _menu_49_05
0030d02a   _menu_49_06
0030d0d2   _menu_49_07
0030d165   _menu_49_08
0030d19f   _menu_49_09
0030d1f9   _menu_49_10
0030d25a   _menu_49_11
0030d2c9   _menu_49_12
0030d2ec   _menu_49_13
0030d30f   _menu_50_04
0030d427   _menu_50_05
0030d4c1   _menu_50_06
0030d554   _menu_50_07
0030d589   _menu_50_08
0030d5be   _menu_50_09
0030d61f   _menu_50_10
0030d68c   _menu_50_11
0030d6af   _menu_50_12
0030d6d2   _menu_51_04
0030d846   _menu_51_05
0030d8e0   _menu_51_06
0030d973   _menu_51_07
0030d9a8   _menu_51_08
0030d9dd   _menu_51_09
0030da3e   _menu_51_10
0030daab   _menu_51_11
0030dace   _menu_51_12
0030daf1   _menu_52_04
0030dc65   _menu_52_05
0030dcff   _menu_52_06
0030dd92   _menu_52_07
0030ddc7   _menu_52_08
0030ddfc   _menu_52_09
0030de5d   _menu_52_10
0030deca   _menu_52_11
0030deed   _menu_52_12
0030df10   _menu_53_04
0030e084   _menu_53_05
0030e11e   _menu_53_06
0030e1b1   _menu_53_07
0030e1e6   _menu_53_08
0030e21b   _menu_53_09
0030e27c   _menu_53_10
0030e2e9   _menu_53_11
0030e30c   _menu_53_12
0030e32f   _menu_54_04
0030e447   _menu_54_05
0030e4e1   _menu_54_06
0030e574   _menu_54_07
0030e5a9   _menu_54_08
0030e5de   _menu_54_09
0030e63f   _menu_54_10
0030e6ac   _menu_54_11
0030e6cf   _menu_54_12
0030e6f2   _menu_55_04
0030e7bf   _menu_55_05
0030e8d6   _menu_55_06
0030e970   _menu_55_07
0030ea03   _menu_55_08
0030ea2c   _menu_55_09
0030ea6d   _menu_55_10
0030eace   _menu_55_11
0030eb3d   _menu_55_12
0030eb60   _menu_55_13
0030eb83   _menu_56_05
0030ec9a   _menu_56_06
0030ed42   _menu_56_07
0030edd5   _menu_56_08
0030edfe   _menu_56_09
0030ee3f   _menu_56_10
0030eea0   _menu_56_11
0030ef0f   _menu_56_12
0030ef32   _menu_56_13
0030ef55   _menu_57_04
0030f007   _menu_57_05
0030f0ec   _menu_57_06
0030f17f   _menu_57_07
0030f1a8   _menu_57_08
0030f1dd   _menu_57_09
0030f23e   _menu_57_10
0030f2ab   _menu_57_11
0030f2ce   _menu_57_12
0030f2f1   _menu_58_05
0030f3e9   _menu_58_06
0030f491   _menu_58_07
0030f524   _menu_58_08
0030f54d   _menu_58_09
0030f58e   _menu_58_10
0030f5ef   _menu_58_11
0030f65e   _menu_58_12
0030f681   _menu_58_13
0030f6a4   _menu_59_04
0030f790   _menu_59_05
0030f889   _menu_59_06
0030f923   _menu_59_07
0030f9b1   _menu_59_08
0030fa44   _menu_59_09
0030fa88   _menu_59_10
0030fac9   _menu_59_11
0030faf8   _menu_59_12
0030fb59   _menu_59_13
0030fbca   _menu_59_14
0030fbed   _menu_59_15
0030fc10   _menu_60_04
0030fcf5   _menu_60_05
0030fdee   _menu_60_06
0030fe88   _menu_60_07
0030ff16   _menu_60_08
0030ffa9   _menu_60_09
0030ffde   _menu_60_10
0031001f   _menu_60_11
0031004e   _menu_60_12
003100af   _menu_60_13
00310120   _menu_60_14
00310143   _menu_60_15
00310166   _menu_80_03
00310223   _menu_80_04
003102d4   _menu_80_05
00310363   _menu_80_06
003103f2   _menu_80_07
00310481   _menu_80_08
00310510   _menu_80_09
0031059f   _menu_80_10
003105ee   _menu_80_11
00310794   _menu_80_12
003107b7   _menu_80_13
003107da   _menu_81_03
0031085b   _menu_81_04
00310916   _menu_81_05
003109c6   _menu_81_06
00310a8e   _menu_81_07
00310bfb   _menu_81_08
00310c8e   _menu_81_09
00310d0b   _menu_81_10
00310d81   _menu_81_11
00310da4   _menu_81_12
00310dc7   _menu_82_03
00310e2b   _menu_82_04
00310ea8   _menu_82_05
00310f27   _menu_82_06
00310fa6   _menu_82_07
00311023   _menu_82_08
003110a0   _menu_82_09
00311120   _menu_82_10
0031115b   _menu_82_11
003111ae   _menu_82_12
003111d1   _menu_82_13
003111f4   _menu_83_03
0031125d   _menu_83_04
003112b4   _menu_83_05
00311307   _menu_83_06
00311394   _menu_83_07
003113b7   _menu_83_08
003113da   _menu_84_03
00311447   _menu_84_05
003114d7   _menu_84_06
0031152a   _menu_84_07
0031154d   _menu_84_08
00311570   _menu_84_09
00311593   _menu_85_03
00311611   _menu_85_04
00311664   _menu_85_05
00311687   _menu_85_06
003116aa   _menu_86_03
0031171e   _menu_86_04
00311771   _menu_86_05
00311794   _menu_86_06
003117b7   _menu_87_03
00311831   _menu_87_04
00311884   _menu_87_05
003118a7   _menu_87_06
003118ca   _menu_88_03
00311940   _menu_88_04
003119d0   _menu_88_05
003119ff   _menu_88_06
00311a68   _menu_88_07
00311a8b   _menu_88_08
00311aae   _menu_89_03
00311b31   _menu_89_04
00311b8a   _menu_89_05
00311bf3   _menu_89_06
00311c16   _menu_89_07
00311c39   _menu_90_03
00311c81   _menu_90_04
00311cd4   _menu_90_05
00311cf7   _menu_90_06
00311d1a   _menu_91_04
00311dab   _menu_91_05
00311dda   _menu_91_06
00311e43   _menu_91_07
00311e66   _menu_91_08
00311e89   _menu_92_04
00311f21   _menu_92_05
00311f9b   _menu_92_06
00311fed   _menu_92_07
00312058   _menu_92_08
0031207b   _menu_92_09
0031209e   _menu_95_04
00312105   _menu_95_05
0031214d   _menu_95_06
0031219a   _menu_95_07
00312207   _menu_95_08
0031222a   _menu_95_09
0031224d   _menu_96_05
00312278   _menu_97_04
003122f8   _menu_97_05
0031237b   _menu_97_06
003123b2   _menu_97_07
0031240d   _menu_97_08
00312430   _menu_97_09
00312453   _menu_98_04
003124bc   _menu_98_05
00312525   _menu_98_06
00312585   _menu_98_07
003125b9   _menu_98_08
003125f5   _menu_98_09
00312662   _menu_98_10
00312685   _menu_98_11
003126a8   _menu_99_04
003126fb   _menu_99_05
0031271e   _menu_99_06
00312741   _menu_100_04
003127ab   _menu_100_05
003127dc   _menu_100_06
00312845   _menu_100_07
00312868   _menu_100_08
0031288b   _menu_101_04
003128e7   _menu_101_05
0031293e   _menu_101_06
00312975   _menu_101_07
003129e1   _menu_101_08
00312a04   _menu_101_09
00312a27   _menu_102_05
00312a6b   _menu_102_06
00312a96   _menu_103_04
00312afd   _menu_103_05
00312b48   _menu_103_06
00312b83   _menu_103_07
00312bee   _menu_103_08
00312c11   _menu_103_09
00312c34   _menu_104_04
00312c9b   _menu_104_05
00312d2e   _menu_104_06
00312d59   _menu_104_07
00312d8d   _menu_104_08
00312dee   _menu_104_09
00312e59   _menu_104_10
00312e7c   _menu_104_11
00312e9f   _menu_150_01
00312f05   _menu_150_02
00312f5b   _menu_151_01
0031307a   _menu_151_02
003130e0   _menu_151_03
00313146   _menu_151_04
003131ad   _menu_151_05
00313251   _menu_151_06
0031326b   _menu_151_07
00313285   _menu_152_01
003132e3   _menu_152_02
00313316   _menu_152_03
003133b1   _menu_152_04
00313457   _menu_152_05
00313482   _menu_153_01
00313501   _menu_153_02
003135c5   _menu_153_03
00313689   _menu_153_04
0031374d   _menu_153_05
003138dd   _menu_153_06
003139a1   _menu_153_07
00313a65   _menu_153_08
00313b29   _menu_153_09
00313bf3   _menu_153_10
00313d76   _menu_153_11
00313d99   _menu_153_12
00313dbc   _menu_154_02
00313e13   _menu_154_03
00313e36   _menu_154_04
00313e59   _menu_156_02
00313eed   _menu_156_03
00313f81   _menu_156_04
00314015   _menu_156_05
003140a9   _menu_156_06
0031413d   _menu_156_07
003141d1   _menu_156_08
00314265   _menu_156_09
003142fc   _menu_156_10
0031432d   _menu_156_11
0031435e   _menu_156_12
0031438f   _menu_156_13
003143bd   _menu_156_14
00314434   _menu_156_15
00314457   _menu_156_16
0031447a   _menu_157_02
00314509   _menu_157_03
00314572   _menu_157_04
00314595   _menu_157_05
003145b8   _menu_dummy
003145d7   _menu_popup
00314613   _menu_99_00
0031462f   _Event_Item_Display
003147e8   _Event_Time_Display
0031486d   _menu_init
0031488c   _Save_Screen_Info
00314893   _Restore_Screen_Info
0031489a   _main
003148a7   _himix_drive
00315062   _himix_crc
0031509f   _harmonics
003155c4   _harmonic_sample_backup
003156c8   _harmonic_real_imag_calculation
0031590f   _measure_display
00315a69   _measure2_display
00315bd0   _interrupt_control
00315c08   _COMM_CRC
00315c2e   _manager_handling
003169c9   _serial_write
00316a75   _comm_drive
00316c64   _booting_setting_check
00317bf2   _aux_do_check
00317bff   _setting_min_max_check
00317c12   _pt_setting_min_max_check
00317c26   _setting_save
00317c6b   _setting_post_handling
003185e0   _setting_load
00318604   _Setting_CRC
00318640   _event_info_update
00318653   _GPT_Default_Settings
0031866b   _CPT_Default_Settings
003186c5   _ADDRESS_Default_Settings
003186db   _AUTO_DISPLAY_Default_Settings
003186f0   _PASSWORD_Default_Settings
00318706   _LOCAL_CTRL_Default_Settings
0031871f   _UVR_MODE_Default_Settings
00318739   _DISPLAY_3PHASE_Default_Settings
0031874f   _MODBUS_Default_Settings
00318766   _OCR_MODE_Default_Settings
0031877e   _SYSTEM_ALARM_Default_Settings
00318795   _OCR50_1_Default_Settings
003187c5   _OCR50_2_Default_Settings
003187f5   _OCR51_1_Default_Settings
00318825   _OCR51_2_Default_Settings
00318855   _OCGR50_Default_Settings
00318885   _OCGR51_Default_Settings
003188b5   _UVR_1_Default_Settings
003188f7   _UVR_2_Default_Settings
00318939   _UVR_3_Default_Settings
0031897b   _P47_Default_Settings
003189bd   _N47_Default_Settings
003189ff   _OVR_Default_Settings
00318a49   _OVGR_Default_Settings
00318a84   _DGR_Default_Settings
00318ad5   _SGR_Default_Settings
00318b1a   _DI_Default_Settings
00318b36   _DO_Default_Settings
00318b4b   _ClearFLASH
00319392   __printfi
00319495   _delay
003194c4   _LCD_DATA
003194d7   _LCD_COMMAND
003194e8   _LCD_INIT
0031950e   _LCD_light_ON
00319514   _LCD_light_OFF
00319519   _VFD_gotopo
0031952e   _VFD_Init
00319566   _VFD_gotoxy
00319578   _VFD_mem_cpy_test
0031957f   _VFD_dump
003195c4   _VFD_dump2
00319604   _VFD_Single_Line_dump
0031962d   _VFD_Word_dump
00319657   _VFD_cursor
00319684   _VFD_printf
00319693   _VFD_FONT
00319694   _eerom_control
003196fc   _eerom_write
0031978f   _eerom_read
00319820   _flash_sector_erase
0031983d   _flash_word_write
00319854   _wave_flash_word_write
00319878   _wave_vi_initial_pre1
00319886   _wave_vi_initial_pre2
00319893   _wave_vi_initial_post
0031989d   _wave_di_initial_pre1
003198ab   _wave_di_initial_pre2
003198b8   _wave_di_initial_post
003198c2   _wave_flash_sector_erase
003198db   _wave_save_process
00319ca7   _led_handling
00319d15   _DO_Output
00319d4a   _cpu_setup
00319d68   _pll_setup
00319d9f   _Peripheral_Clock_setup
00319dc2   _interrupt_setup
00319e19   _sci_setup
00319e6e   _GPIO_setup
00319ec9   _Xinterface_setup
00319f1f   _InitTimer
00319f4d   _i2c_setup
00319f78   _lcd_setup
0031a271   _Offset_Check
0031a299   _DFT_Check
0031a300   _Degree_Check
0031a349   _ADC_Offset_Calibration
0031a3c4   _ADC_High_Calibration
0031a4b7   _ADC_low_Calibration
0031a77b   LL$$DIV
0031a7b7   LL$$MOD
0031a7f1   ULL$$DIV
0031a820   ULL$$MOD
0031a882   _atan2
0031a946   FD$$ADD
0031a9e2   FD$$DIV
0031aa6d   FS$$DIV
0031aaf5   FD$$MPY
0031ab78   _atan
0031abea   _exp
0031ac54   _cos
0031acb5   _pow
0031ad0f   _sin
0031ad66   __log
0031adba   _c_int00
0031ae00   _ldexp
0031ae35   _atoi
0031ae66   _sprintf
0031ae95   _ltoa
0031aec1   FD$$CMP
0031aeeb   L$$DIV
0031aefa   L$$MOD
0031af08   UL$$DIV
0031af0f   UL$$MOD
0031af16   _sqrt
0031af39   I$$DIV
0031af4a   I$$MOD
0031af5b   FD$$TOI
0031af7c   ___memcpy_ff
0031af9d   FD$$TOL
0031afbc   LL$$CMP
0031afce   ULL$$CMP
0031afda   FS$$TOFD
0031aff6   L$$TOFD
0031b012   FD$$TOUL
0031b02d   __args_main
0031b046   C$$EXIT
0031b046   _abort
0031b048   _exit
0031b05f   _frexp
0031b075   UL$$TOFD
0031b08b   _MemCopy
0031b0a0   LL$$MPY
0031b0b4   _memccpy
0031b0c6   FD$$SUB
0031b0d4   U$$DIV
0031b0d9   U$$MOD
0031b0df   _strlen
0031b0e9   __register_unlock
0031b0ed   __register_lock
0031b0f1   __nop
0031b0f2   FD$$NEG
0031b0fb   _strcpy
0031b10c   _memset
0031b113   ___etext__
0031b113   etext
0031f4a2   _menu_tables
003210c2   __ctypes_
003211c3   _CRC_High
003212c3   _CRC_Low
003213c4   _KHS_LCD_Buffer
00321410   _harmonics_1st_cos
00321458   _harmonics_1st_sin
003214a0   _harmonics_3rd_cos
003214e8   _harmonics_3rd_sin
00321530   _harmonics_5th_cos
00321578   _harmonics_5th_sin
003215c0   _harmonics_7th_cos
00321608   _harmonics_7th_sin
00321650   _harmonics_9th_cos
00321698   _harmonics_9th_sin
003216e0   _DGR_A_MAX
003216e1   _DGR_A_MIN
003216e2   _DGR_T_MAX
003216e3   _UVR_T_MIN
003216e4   _DGR_T_MIN
003216e5   _OCGR51_TL_MAX
003216e6   _SGR_A_MIN
003216e7   _SGR_T_MAX
003216e8   _SGR_T_MIN
003216e9   _SGR_I_MAX
003216ea   _OCR50_T_MIN
003216eb   _SGR_I_MIN
003216ec   _OVR_TL_MIN
003216ed   _OVR_T_MAX
003216ee   _OVR_TL_MAX
003216ef   _OVGR_TL_MIN
003216f0   _OVGR_TL_MAX
003216f1   _P47_T_MIN
003216f2   _UVR_T_MAX
003216f3   _P47_T_MAX
003216f4   _N47_T_MAX
003216f5   _N47_T_MIN
003216f6   _OVR_T_MIN
003216f7   _OCR51_TL_MIN
003216f8   _OCR51_TL_MAX
003216f9   _OCGR51_TL_MIN
003216fa   _DEBOUNCE_MAX
003216fb   _OCGR50_T_MAX
003216fc   _OCGR50_T_MIN
003216fd   _CT_MIN
003216fe   _OCR50_T_MAX
003216ff   _PT_MIN
00321700   _CT_MAX
00321701   _CT_1A_RATED
00321702   _DEBOUNCE_MIN
00321703   _CT_5A_RATED
00321704   _SGR_A_MAX
00321706   _CALIB_In_MIN
00321708   _CALIB_I_MAX
0032170a   _CALIB_V_MIN
0032170c   _CALIB_In_MAX
0032170e   _CALIB_I_MIN
00321710   _PT_MAX
00321712   _CALIB_V_MAX
00321714   _CALIB_Vo_MAX
00321716   _CALIB_Vo_MIN
00321718   _LCD_Position_Value
00321786   _cos_50Hz
0032179e   _cos_60Hz
003217b6   _sin_50Hz
003217ce   _sin_60Hz
003217fe   _wave_buffer_address
00321812   _wave_buffer_post_address
003218b2   _himix_number
003218bc   _DO_ON_BIT
003218c5   _OFF_BIT
003218ce   _ON_BIT
003218e8   _DO_OFF_BIT
003219f4   _N47_V_MAX
003219f8   _N47_V_MIN
003219fc   _OVR_V_MAX
00321a00   _OVR_V_MIN
00321a04   _P47_V_MAX
00321a08   _P47_V_MIN
00321a0c   _UVR_1_V_MAX
00321a10   _UVR_1_V_MIN
00321a14   _UVR_2_V_MAX
00321a18   _UVR_2_V_MIN
00321a1c   _UVR_3_V_MAX
00321a20   _UVR_3_V_MIN
00321a8a   _DGR_V_MAX
00321a8d   _DGR_V_MIN
00321a90   _OVGR_V_MAX
00321a93   _OVGR_V_MIN
00321a96   _SGR_V_MAX
00321a99   _SGR_V_MIN
00321ab8   _DGR_I_MAX
00321aba   _DGR_I_MIN
00321abc   _OCGR50_I_MAX
00321abe   _OCGR50_I_MIN
00321ac0   _OCGR51_I_MAX
00321ac2   _OCGR51_I_MIN
00321ac4   _OCR50_I_MAX
00321ac6   _OCR50_I_MIN
00321ac8   _OCR51_I_MAX
00321aca   _OCR51_I_MIN
00321acc   ___cinit__
00321acc   cinit
0033fff6   code_start
ffffffff   ___binit__
ffffffff   ___c_args__
ffffffff   ___pinit__
ffffffff   binit
ffffffff   pinit

[1194 symbols]
